                             //
                             // .text 
                             // ram:00401000-ram:004019ff
                             //
                             **************************************************************
                             *                          FUNCTION                          *
                             **************************************************************
                             undefined __stdcall FUN_00401000(void)
                               assume FS_OFFSET = 0xffdff000
             undefined         AL:1           <RETURN>
             undefined1        Stack[-0x1]:1  local_1                                 XREF[2]:     00401030(*), 
                                                                                                   00401040(R)  
             undefined1        Stack[-0xc]:1  local_c                                 XREF[1]:     00401069(*)  
                             FUN_00401000                                    XREF[3]:     0040011c(*), 004001f4(*), 
                                                                                          FUN_00401252:0040135c(c)  
        00401000 51              PUSH       ECX
        00401001 ff 15 00        CALL       dword ptr [->KERNEL32.DLL::IsDebuggerPresent]    = 000023ac
                 20 40 00
        00401007 85 c0           TEST       EAX,EAX
        00401009 74 16           JZ         LAB_00401021
        0040100b 68 f4 20        PUSH       s_Debugger_found._exiting..._004020f4            = "Debugger found. exiting..."
                 40 00
        00401010 ff 15 a0        CALL       dword ptr [->MSVCR90.DLL::printf]                = 000023d6
                 20 40 00
        00401016 83 c4 04        ADD        ESP,0x4
        00401019 6a 01           PUSH       0x1
        0040101b ff 15 9c        CALL       dword ptr [->MSVCR90.DLL::exit]                  = 000023e0
                 20 40 00
                             -- Flow Override: CALL_RETURN (COMPUTED_CALL_TERMINATOR)
                             LAB_00401021                                    XREF[1]:     00401009(j)  
        00401021 56              PUSH       ESI
        00401022 57              PUSH       EDI
        00401023 8b 3d a0        MOV        EDI,dword ptr [->MSVCR90.DLL::printf]            = 000023d6
                 20 40 00
        00401029 68 10 21        PUSH       s_Enter_password:_00402110                       = "Enter password: "
                 40 00
        0040102e ff d7           CALL       EDI=>MSVCR90.DLL::printf
        00401030 8d 44 24 0f     LEA        EAX=>local_1,[ESP + 0xf]
        00401034 50              PUSH       EAX
        00401035 68 24 21        PUSH       DAT_00402124                                     = 25h    %
                 40 00
        0040103a ff 15 a4        CALL       dword ptr [->MSVCR90.DLL::scanf]                 = 000023ce
                 20 40 00
        00401040 0f be 44        MOVSX      EAX,byte ptr [ESP + local_1]
                 24 17
        00401045 83 c0 57        ADD        EAX,0x57
        00401048 83 c4 0c        ADD        ESP,0xc
        0040104b 3d c7 00        CMP        EAX,0xc7
                 00 00
        00401050 0f 87 b6        JA         switchD_0040105d::caseD_aa
                 00 00 00
        00401056 0f b6 88        MOVZX      ECX,byte ptr [EAX + 0x401130]=>BYTE_00401187     = 3h
                 30 11 40 00
                             switchD_0040105d::switchD
        0040105d ff 24 8d        JMP        dword ptr [ECX*0x4 + switchD_0040105d::switchd   = BCh
                 20 11 40 00
                             switchD_0040105d::caseD_70                      XREF[1]:     0040105d(j)  
        00401064 b9 d2 04        MOV        ECX,0x4d2
                 00 00
        00401069 8d a4 24        LEA        ESP=>local_c,[ESP]
                 00 00 00 00
                             LAB_00401070                                    XREF[1]:     00401097(j)  
        00401070 b8 67 66        MOV        EAX,0x66666667
                 66 66
        00401075 f7 e9           IMUL       ECX
        00401077 c1 fa 02        SAR        EDX,0x2
        0040107a 8b f2           MOV        ESI,EDX
        0040107c c1 ee 1f        SHR        ESI,0x1f
        0040107f 03 f2           ADD        ESI,EDX
        00401081 8d 14 b6        LEA        EDX,[ESI + ESI*0x4]
        00401084 03 d2           ADD        EDX,EDX
        00401086 2b ca           SUB        ECX,EDX
        00401088 51              PUSH       ECX
        00401089 68 28 21        PUSH       DAT_00402128                                     = 25h    %
                 40 00
        0040108e ff d7           CALL       EDI=>MSVCR90.DLL::printf
        00401090 8b ce           MOV        ECX,ESI
        00401092 83 c4 08        ADD        ESP,0x8
        00401095 85 c9           TEST       ECX,ECX
        00401097 75 d7           JNZ        LAB_00401070
        00401099 68 2c 21        PUSH       s_Ops!_there_are_more_0040212c                   = "Ops! there are more"
                 40 00
        0040109e ff d7           CALL       EDI=>MSVCR90.DLL::printf
        004010a0 83 c4 04        ADD        ESP,0x4
        004010a3 56              PUSH       ESI
        004010a4 ff 15 9c        CALL       dword ptr [->MSVCR90.DLL::exit]                  = 000023e0
                 20 40 00
                             -- Flow Override: CALL_RETURN (COMPUTED_CALL_TERMINATOR)
                             switchD_0040105d::caseD_65                      XREF[1]:     0040105d(j)  
                             switchD_0040105d::caseD_64
        004010aa 68 40 21        PUSH       s_Ops!_not_this_one_00402140                     = "Ops! not this one"
                 40 00
        004010af ff d7           CALL       EDI=>MSVCR90.DLL::printf
        004010b1 83 c4 04        ADD        ESP,0x4
        004010b4 6a 01           PUSH       0x1
        004010b6 ff 15 9c        CALL       dword ptr [->MSVCR90.DLL::exit]                  = 000023e0
                 20 40 00
                             -- Flow Override: CALL_RETURN (COMPUTED_CALL_TERMINATOR)
                             switchD_0040105d::caseD_a9                      XREF[1]:     0040105d(j)  
        004010bc 53              PUSH       EBX
        004010bd b9 4f 61        MOV        ECX,0xbc614f
                 bc 00
        004010c2 bb 04 00        MOV        EBX,0x4
                 00 00
        004010c7 eb 07           JMP        LAB_004010d0
        004010c9 8d              ??         8Dh
        004010ca a4              ??         A4h
        004010cb 24              ??         24h    $
        004010cc 00              ??         00h
        004010cd 00              ??         00h
        004010ce 00              ??         00h
        004010cf 00              ??         00h
                             LAB_004010d0                                    XREF[2]:     004010c7(j), 004010f8(j)  
        004010d0 b8 67 66        MOV        EAX,0x66666667
                 66 66
        004010d5 f7 e9           IMUL       ECX
        004010d7 c1 fa 02        SAR        EDX,0x2
        004010da 8b f2           MOV        ESI,EDX
        004010dc c1 ee 1f        SHR        ESI,0x1f
        004010df 03 f2           ADD        ESI,EDX
        004010e1 8d 04 b6        LEA        EAX,[ESI + ESI*0x4]
        004010e4 03 c0           ADD        EAX,EAX
        004010e6 2b c8           SUB        ECX,EAX
        004010e8 51              PUSH       ECX
        004010e9 68 28 21        PUSH       DAT_00402128                                     = 25h    %
                 40 00
        004010ee ff d7           CALL       EDI=>MSVCR90.DLL::printf
        004010f0 83 c4 08        ADD        ESP,0x8
        004010f3 83 eb 01        SUB        EBX,0x1
        004010f6 8b ce           MOV        ECX,ESI
        004010f8 75 d6           JNZ        LAB_004010d0
        004010fa 68 54 21        PUSH       s_Ops!_you_may_have_found_the_key!_00402154      = "Ops! you may have found the k
                 40 00
        004010ff ff d7           CALL       EDI=>MSVCR90.DLL::printf
        00401101 83 c4 04        ADD        ESP,0x4
        00401104 53              PUSH       EBX
        00401105 ff 15 9c        CALL       dword ptr [->MSVCR90.DLL::exit]                  = 000023e0
                 20 40 00
                             -- Flow Override: CALL_RETURN (COMPUTED_CALL_TERMINATOR)
             assume FS_OFFSET = <UNKNOWN>
        0040110b 5b              ??         5Bh    [
             assume FS_OFFSET = 0xffdff000
                             switchD_0040105d::caseD_ab                      XREF[2]:     00401050(j), 0040105d(j)  
                             switchD_0040105d::caseD_ac
                             switchD_0040105d::caseD_ad
                             switchD_0040105d::caseD_ae
                             switchD_0040105d::caseD_af
                             switchD_0040105d::caseD_b0
                             switchD_0040105d::caseD_b1
                             switchD_0040105d::caseD_b2
                             switchD_0040105d::caseD_b3
                             switchD_0040105d::caseD_b4
                             switchD_0040105d::caseD_b5
                             switchD_0040105d::caseD_b6
                             switchD_0040105d::caseD_b7
                             switchD_0040105d::caseD_b8
                             switchD_0040105d::caseD_b9
                             switchD_0040105d::caseD_ba
                             switchD_0040105d::caseD_bb
                             switchD_0040105d::caseD_bc
                             switchD_0040105d::caseD_bd
                             switchD_0040105d::caseD_be
                             switchD_0040105d::caseD_bf
                             switchD_0040105d::caseD_c0
                             switchD_0040105d::caseD_c1
                             switchD_0040105d::caseD_c2
                             switchD_0040105d::caseD_c3
                             switchD_0040105d::caseD_c4
                             switchD_0040105d::caseD_c5
                             switchD_0040105d::caseD_c6
                             switchD_0040105d::caseD_c7
                             switchD_0040105d::caseD_c8
                             switchD_0040105d::caseD_c9
                             switchD_0040105d::caseD_ca
                             switchD_0040105d::caseD_cb
                             switchD_0040105d::caseD_cc
                             switchD_0040105d::caseD_cd
                             switchD_0040105d::caseD_ce
                             switchD_0040105d::caseD_cf
                             switchD_0040105d::caseD_d0
                             switchD_0040105d::caseD_d1
                             switchD_0040105d::caseD_d2
                             switchD_0040105d::caseD_d3
                             switchD_0040105d::caseD_d4
                             switchD_0040105d::caseD_d5
                             switchD_0040105d::caseD_d6
                             switchD_0040105d::caseD_d7
                             switchD_0040105d::caseD_d8
                             switchD_0040105d::caseD_d9
                             switchD_0040105d::caseD_da
                             switchD_0040105d::caseD_db
                             switchD_0040105d::caseD_dc
                             switchD_0040105d::caseD_dd
                             switchD_0040105d::caseD_de
                             switchD_0040105d::caseD_df
                             switchD_0040105d::caseD_e0
                             switchD_0040105d::caseD_e1
                             switchD_0040105d::caseD_e2
                             switchD_0040105d::caseD_e3
                             switchD_0040105d::caseD_e4
                             switchD_0040105d::caseD_e5
                             switchD_0040105d::caseD_e6
                             switchD_0040105d::caseD_e7
                             switchD_0040105d::caseD_e8
                             switchD_0040105d::caseD_e9
                             switchD_0040105d::caseD_ea
                             switchD_0040105d::caseD_eb
                             switchD_0040105d::caseD_ec
                             switchD_0040105d::caseD_ed
                             switchD_0040105d::caseD_ee
                             switchD_0040105d::caseD_ef
                             switchD_0040105d::caseD_f0
                             switchD_0040105d::caseD_f1
                             switchD_0040105d::caseD_f2
                             switchD_0040105d::caseD_f3
                             switchD_0040105d::caseD_f4
                             switchD_0040105d::caseD_f5
                             switchD_0040105d::caseD_f6
                             switchD_0040105d::caseD_f7
                             switchD_0040105d::caseD_f8
                             switchD_0040105d::caseD_f9
                             switchD_0040105d::caseD_fa
                             switchD_0040105d::caseD_fb
                             switchD_0040105d::caseD_fc
                             switchD_0040105d::caseD_fd
                             switchD_0040105d::caseD_fe
                             switchD_0040105d::caseD_ff
                             switchD_0040105d::caseD_0
                             switchD_0040105d::caseD_1
                             switchD_0040105d::caseD_2
                             switchD_0040105d::caseD_3
                             switchD_0040105d::caseD_4
                             switchD_0040105d::caseD_5
                             switchD_0040105d::caseD_6
                             switchD_0040105d::caseD_7
                             switchD_0040105d::caseD_8
                             switchD_0040105d::caseD_9
                             switchD_0040105d::caseD_a
                             switchD_0040105d::caseD_b
                             switchD_0040105d::caseD_c
                             switchD_0040105d::caseD_d
                             switchD_0040105d::caseD_e
                             switchD_0040105d::caseD_f
                             switchD_0040105d::caseD_10
                             switchD_0040105d::caseD_11
                             switchD_0040105d::caseD_12
                             switchD_0040105d::caseD_13
                             switchD_0040105d::caseD_14
                             switchD_0040105d::caseD_15
                             switchD_0040105d::caseD_16
                             switchD_0040105d::caseD_17
                             switchD_0040105d::caseD_18
                             switchD_0040105d::caseD_19
                             switchD_0040105d::caseD_1a
                             switchD_0040105d::caseD_1b
                             switchD_0040105d::caseD_1c
                             switchD_0040105d::caseD_1d
                             switchD_0040105d::caseD_1e
                             switchD_0040105d::caseD_1f
                             switchD_0040105d::caseD_20
                             switchD_0040105d::caseD_21
                             switchD_0040105d::caseD_22
                             switchD_0040105d::caseD_23
                             switchD_0040105d::caseD_24
                             switchD_0040105d::caseD_25
                             switchD_0040105d::caseD_26
                             switchD_0040105d::caseD_27
                             switchD_0040105d::caseD_28
                             switchD_0040105d::caseD_29
                             switchD_0040105d::caseD_2a
                             switchD_0040105d::caseD_2b
                             switchD_0040105d::caseD_2c
                             switchD_0040105d::caseD_2d
                             switchD_0040105d::caseD_2e
                             switchD_0040105d::caseD_2f
                             switchD_0040105d::caseD_30
                             switchD_0040105d::caseD_31
                             switchD_0040105d::caseD_32
                             switchD_0040105d::caseD_33
                             switchD_0040105d::caseD_34
                             switchD_0040105d::caseD_35
                             switchD_0040105d::caseD_36
                             switchD_0040105d::caseD_37
                             switchD_0040105d::caseD_38
                             switchD_0040105d::caseD_39
                             switchD_0040105d::caseD_3a
                             switchD_0040105d::caseD_3b
                             switchD_0040105d::caseD_3c
                             switchD_0040105d::caseD_3d
                             switchD_0040105d::caseD_3e
                             switchD_0040105d::caseD_3f
                             switchD_0040105d::caseD_40
                             switchD_0040105d::caseD_41
                             switchD_0040105d::caseD_42
                             switchD_0040105d::caseD_43
                             switchD_0040105d::caseD_44
                             switchD_0040105d::caseD_45
                             switchD_0040105d::caseD_46
                             switchD_0040105d::caseD_47
                             switchD_0040105d::caseD_48
                             switchD_0040105d::caseD_49
                             switchD_0040105d::caseD_4a
                             switchD_0040105d::caseD_4b
                             switchD_0040105d::caseD_4c
                             switchD_0040105d::caseD_4d
                             switchD_0040105d::caseD_4e
                             switchD_0040105d::caseD_4f
                             switchD_0040105d::caseD_50
                             switchD_0040105d::caseD_51
                             switchD_0040105d::caseD_52
                             switchD_0040105d::caseD_53
                             switchD_0040105d::caseD_54
                             switchD_0040105d::caseD_55
                             switchD_0040105d::caseD_56
                             switchD_0040105d::caseD_57
                             switchD_0040105d::caseD_58
                             switchD_0040105d::caseD_59
                             switchD_0040105d::caseD_5a
                             switchD_0040105d::caseD_5b
                             switchD_0040105d::caseD_5c
                             switchD_0040105d::caseD_5d
                             switchD_0040105d::caseD_5e
                             switchD_0040105d::caseD_5f
                             switchD_0040105d::caseD_60
                             switchD_0040105d::caseD_61
                             switchD_0040105d::caseD_62
                             switchD_0040105d::caseD_63
                             switchD_0040105d::caseD_66
                             switchD_0040105d::caseD_67
                             switchD_0040105d::caseD_68
                             switchD_0040105d::caseD_69
                             switchD_0040105d::caseD_6a
                             switchD_0040105d::caseD_6b
                             switchD_0040105d::caseD_6c
                             switchD_0040105d::caseD_6d
                             switchD_0040105d::caseD_6e
                             switchD_0040105d::caseD_6f
                             switchD_0040105d::caseD_aa
        0040110c 68 78 21        PUSH       s_Invalid_password_00402178                      = "Invalid password"
                 40 00
        00401111 ff d7           CALL       EDI=>MSVCR90.DLL::printf
        00401113 83 c4 04        ADD        ESP,0x4
        00401116 6a 01           PUSH       0x1
        00401118 ff 15 9c        CALL       dword ptr [->MSVCR90.DLL::exit]                  = 000023e0
                 20 40 00
                             -- Flow Override: CALL_RETURN (COMPUTED_CALL_TERMINATOR)
             assume FS_OFFSET = <UNKNOWN>
        0040111e 8b              ??         8Bh
        0040111f ff              ??         FFh
                             switchD_0040105d::switchdataD_00401120          XREF[1]:     FUN_00401000:0040105d(R)  
        00401120 bc              ??         BCh                                              ?  ->  004010bc
        00401121 10              ??         10h
        00401122 40              ??         40h    @
        00401123 00              ??         00h
        00401124 aa              ??         AAh                                              ?  ->  004010aa
        00401125 10              ??         10h
        00401126 40              ??         40h    @
        00401127 00              ??         00h
        00401128 64              ??         64h    d                                         ?  ->  00401064
        00401129 10              ??         10h
        0040112a 40              ??         40h    @
        0040112b 00              ??         00h
        0040112c 0c              ??         0Ch                                              ?  ->  0040110c
        0040112d 11              ??         11h
        0040112e 40              ??         40h    @
        0040112f 00              ??         00h
                             switchD_0040105d::switchdataD_00401130
        00401130 00              ??         00h
        00401131 03              ??         03h
        00401132 03              ??         03h
        00401133 03              ??         03h
        00401134 03              ??         03h
        00401135 03              ??         03h
        00401136 03              ??         03h
        00401137 03              ??         03h
        00401138 03              ??         03h
        00401139 03              ??         03h
        0040113a 03              ??         03h
        0040113b 03              ??         03h
        0040113c 03              ??         03h
        0040113d 03              ??         03h
        0040113e 03              ??         03h
        0040113f 03              ??         03h
        00401140 03              ??         03h
        00401141 03              ??         03h
        00401142 03              ??         03h
        00401143 03              ??         03h
        00401144 03              ??         03h
        00401145 03              ??         03h
        00401146 03              ??         03h
        00401147 03              ??         03h
        00401148 03              ??         03h
        00401149 03              ??         03h
        0040114a 03              ??         03h
        0040114b 03              ??         03h
        0040114c 03              ??         03h
        0040114d 03              ??         03h
        0040114e 03              ??         03h
        0040114f 03              ??         03h
        00401150 03              ??         03h
        00401151 03              ??         03h
        00401152 03              ??         03h
             assume FS_OFFSET = 0xffdff000
        00401153 03              db         3h
        00401154 03              db         3h
        00401155 03              db         3h
        00401156 03              db         3h
        00401157 03              db         3h
        00401158 03              db         3h
        00401159 03              db         3h
        0040115a 03              db         3h
        0040115b 03              db         3h
        0040115c 03              db         3h
        0040115d 03              db         3h
        0040115e 03              db         3h
        0040115f 03              db         3h
        00401160 03              db         3h
        00401161 03              db         3h
        00401162 03              db         3h
        00401163 03              db         3h
        00401164 03              db         3h
        00401165 03              db         3h
        00401166 03              db         3h
        00401167 03              db         3h
        00401168 03              db         3h
        00401169 03              db         3h
        0040116a 03              db         3h
        0040116b 03              db         3h
        0040116c 03              db         3h
        0040116d 03              db         3h
        0040116e 03              db         3h
        0040116f 03              db         3h
        00401170 03              db         3h
        00401171 03              db         3h
        00401172 03              db         3h
        00401173 03              db         3h
        00401174 03              db         3h
        00401175 03              db         3h
        00401176 03              db         3h
        00401177 03              db         3h
        00401178 03              db         3h
        00401179 03              db         3h
        0040117a 03              db         3h
        0040117b 03              db         3h
        0040117c 03              db         3h
        0040117d 03              db         3h
        0040117e 03              db         3h
        0040117f 03              db         3h
        00401180 03              db         3h
        00401181 03              db         3h
        00401182 03              db         3h
        00401183 03              db         3h
        00401184 03              db         3h
        00401185 03              db         3h
        00401186 03              db         3h
                             BYTE_00401187                                   XREF[1]:     FUN_00401000:00401056(R)  
        00401187 03              db         3h
        00401188 03              db         3h
        00401189 03              db         3h
        0040118a 03              db         3h
        0040118b 03              db         3h
        0040118c 03              db         3h
        0040118d 03              db         3h
        0040118e 03              db         3h
        0040118f 03              db         3h
        00401190 03              db         3h
        00401191 03              db         3h
        00401192 03              db         3h
        00401193 03              db         3h
        00401194 03              db         3h
        00401195 03              db         3h
        00401196 03              db         3h
        00401197 03              db         3h
        00401198 03              db         3h
        00401199 03              db         3h
        0040119a 03              db         3h
        0040119b 03              db         3h
        0040119c 03              db         3h
        0040119d 03              db         3h
        0040119e 03              db         3h
        0040119f 03              db         3h
        004011a0 03              db         3h
        004011a1 03              db         3h
        004011a2 03              db         3h
        004011a3 03              db         3h
        004011a4 03              db         3h
        004011a5 03              db         3h
        004011a6 03              db         3h
        004011a7 03              db         3h
        004011a8 03              db         3h
        004011a9 03              db         3h
        004011aa 03              db         3h
        004011ab 03              db         3h
        004011ac 03              db         3h
        004011ad 03              db         3h
        004011ae 03              db         3h
        004011af 03              db         3h
        004011b0 03              db         3h
        004011b1 03              db         3h
        004011b2 03              db         3h
        004011b3 03              db         3h
        004011b4 03              db         3h
        004011b5 03              db         3h
        004011b6 03              db         3h
        004011b7 03              db         3h
        004011b8 03              db         3h
        004011b9 03              db         3h
        004011ba 03              db         3h
        004011bb 03              db         3h
        004011bc 03              db         3h
        004011bd 03              db         3h
        004011be 03              db         3h
        004011bf 03              db         3h
        004011c0 03              db         3h
        004011c1 03              db         3h
        004011c2 03              db         3h
        004011c3 03              db         3h
        004011c4 03              db         3h
        004011c5 03              db         3h
        004011c6 03              db         3h
        004011c7 03              db         3h
        004011c8 03              db         3h
        004011c9 03              db         3h
        004011ca 03              db         3h
        004011cb 03              db         3h
        004011cc 03              db         3h
        004011cd 03              db         3h
        004011ce 03              db         3h
        004011cf 03              db         3h
        004011d0 03              db         3h
        004011d1 03              db         3h
        004011d2 03              db         3h
        004011d3 03              db         3h
        004011d4 03              db         3h
        004011d5 03              db         3h
        004011d6 03              db         3h
        004011d7 03              db         3h
        004011d8 03              db         3h
        004011d9 03              db         3h
        004011da 03              db         3h
        004011db 03              db         3h
        004011dc 03              db         3h
        004011dd 03              db         3h
        004011de 03              db         3h
        004011df 03              db         3h
        004011e0 03              db         3h
        004011e1 03              db         3h
        004011e2 03              db         3h
        004011e3 03              db         3h
        004011e4 03              db         3h
        004011e5 03              db         3h
        004011e6 03              db         3h
        004011e7 03              db         3h
        004011e8 03              db         3h
        004011e9 03              db         3h
        004011ea 03              db         3h
        004011eb 01              db         1h
        004011ec 01              db         1h
        004011ed 03              db         3h
        004011ee 03              db         3h
        004011ef 03              db         3h
        004011f0 03              db         3h
        004011f1 03              db         3h
        004011f2 03              db         3h
        004011f3 03              db         3h
        004011f4 03              db         3h
        004011f5 03              db         3h
        004011f6 03              db         3h
        004011f7 02              db         2h
                             LAB_004011f8                                    XREF[1]:     FUN_004018d5:004018e6(*)  
        004011f8 3b 0d 00        CMP        ECX,dword ptr [DAT_00403000]                     = BB40E64Eh
                 30 40 00
        004011fe 75 02           JNZ        LAB_00401202
        00401200 f3 c3           RET
                             LAB_00401202                                    XREF[1]:     004011fe(j)  
        00401202 e9 ac 02        JMP        ___report_gsfailure                              void ___report_gsfailure(void)
                 00 00
                             -- Flow Override: CALL_RETURN (CALL_TERMINATOR)
        00401207 68              ??         68h    h
        00401208 f2              ??         F2h                                              ?  ->  004016f2
        00401209 16              ??         16h
        0040120a 40              ??         40h    @
        0040120b 00              ??         00h
        0040120c e8              ??         E8h
        0040120d a4              ??         A4h
        0040120e 04              ??         04h
        0040120f 00              ??         00h
        00401210 00              ??         00h
        00401211 a1              ??         A1h
        00401212 60              ??         60h    `                                         ?  ->  00403360
        00401213 33              ??         33h    3
        00401214 40              ??         40h    @
        00401215 00              ??         00h
        00401216 c7              ??         C7h
        00401217 04              ??         04h
        00401218 24              ??         24h    $
        00401219 2c              ??         2Ch    ,                                         ?  ->  0040302c
        0040121a 30              ??         30h    0
        0040121b 40              ??         40h    @
        0040121c 00              ??         00h
        0040121d ff              ??         FFh
        0040121e 35              ??         35h    5
        0040121f 5c              ??         5Ch    \                                         ?  ->  0040335c
        00401220 33              ??         33h    3
        00401221 40              ??         40h    @
        00401222 00              ??         00h
        00401223 a3              ??         A3h
        00401224 2c              ??         2Ch    ,                                         ?  ->  0040302c
        00401225 30              ??         30h    0
        00401226 40              ??         40h    @
        00401227 00              ??         00h
        00401228 68              ??         68h    h
        00401229 1c              ??         1Ch                                              ?  ->  0040301c
        0040122a 30              ??         30h    0
        0040122b 40              ??         40h    @
        0040122c 00              ??         00h
        0040122d 68              ??         68h    h
        0040122e 20              ??         20h                                              ?  ->  00403020
        0040122f 30              ??         30h    0
        00401230 40              ??         40h    @
        00401231 00              ??         00h
        00401232 68              ??         68h    h
        00401233 18              ??         18h                                              ?  ->  00403018
        00401234 30              ??         30h    0
        00401235 40              ??         40h    @
        00401236 00              ??         00h
        00401237 ff              ??         FFh
        00401238 15              ??         15h
        00401239 94              ??         94h                                              ?  ->  00402094
        0040123a 20              ??         20h     
        0040123b 40              ??         40h    @
        0040123c 00              ??         00h
        0040123d 83              ??         83h
        0040123e c4              ??         C4h
        0040123f 14              ??         14h
        00401240 a3              ??         A3h
        00401241 28              ??         28h    (                                         ?  ->  00403028
        00401242 30              ??         30h    0
        00401243 40              ??         40h    @
        00401244 00              ??         00h
        00401245 85              ??         85h
        00401246 c0              ??         C0h
        00401247 7d              ??         7Dh    }
        00401248 08              ??         08h
        00401249 6a              ??         6Ah    j
        0040124a 08              ??         08h
        0040124b e8              ??         E8h
        0040124c ba              ??         BAh
        0040124d 03              ??         03h
        0040124e 00              ??         00h
        0040124f 00              ??         00h
        00401250 59              ??         59h    Y
        00401251 c3              ??         C3h
                             **************************************************************
                             *                          FUNCTION                          *
                             **************************************************************
                             int __stdcall FUN_00401252(void)
                               assume FS_OFFSET = 0xffdff000
             int               EAX:4          <RETURN>
             undefined4        Stack[-0x8]:4  local_8                                 XREF[3]:     00401260(W), 
                                                                                                   004012d4(W), 
                                                                                                   004013b6(W)  
             undefined4        Stack[-0x20]:4 local_20                                XREF[3]:     0040126c(W), 
                                                                                                   00401288(W), 
                                                                                                   0040130f(R)  
                             FUN_00401252                                    XREF[1]:     entry:004014ae(c)  
        00401252 6a 10           PUSH       0x10
        00401254 68 68 22        PUSH       DAT_00402268                                     = FEh
                 40 00
        00401259 e8 1e 06        CALL       __SEH_prolog4                                    undefined __SEH_prolog4(undefine
                 00 00
        0040125e 33 db           XOR        EBX,EBX
        00401260 89 5d fc        MOV        dword ptr [EBP + local_8],EBX
        00401263 64 a1 18        MOV        EAX,FS:[offset ->ExceptionList]                  = ffdff000
                 00 00 00
        00401269 8b 70 04        MOV        ESI,dword ptr [EAX + offset StackBase]           = 00000000
        0040126c 89 5d e4        MOV        dword ptr [EBP + local_20],EBX
        0040126f bf 74 33        MOV        EDI,DAT_00403374                                 = ??
                 40 00
                             LAB_00401274                                    XREF[1]:     00401298(j)  
        00401274 53              PUSH       EBX
        00401275 56              PUSH       ESI
        00401276 57              PUSH       EDI=>DAT_00403374                                = ??
        00401277 ff 15 24        CALL       dword ptr [->KERNEL32.DLL::InterlockedCompareE   = 00002594
                 20 40 00
        0040127d 3b c3           CMP        EAX,EBX
        0040127f 74 19           JZ         LAB_0040129a
        00401281 3b c6           CMP        EAX,ESI
        00401283 75 08           JNZ        LAB_0040128d
        00401285 33 f6           XOR        ESI,ESI
        00401287 46              INC        ESI
        00401288 89 75 e4        MOV        dword ptr [EBP + local_20],ESI
        0040128b eb 10           JMP        LAB_0040129d
                             LAB_0040128d                                    XREF[1]:     00401283(j)  
        0040128d 68 e8 03        PUSH       0x3e8
                 00 00
        00401292 ff 15 28        CALL       dword ptr [->KERNEL32.DLL::Sleep]                = 0000258c
                 20 40 00
        00401298 eb da           JMP        LAB_00401274
                             LAB_0040129a                                    XREF[1]:     0040127f(j)  
        0040129a 33 f6           XOR        ESI,ESI
        0040129c 46              INC        ESI
                             LAB_0040129d                                    XREF[1]:     0040128b(j)  
        0040129d a1 70 33        MOV        EAX,[DAT_00403370]                               = ??
                 40 00
        004012a2 3b c6           CMP        EAX,ESI
        004012a4 75 0a           JNZ        LAB_004012b0
        004012a6 6a 1f           PUSH       0x1f
        004012a8 e8 5d 03        CALL       MSVCR90.DLL::_amsg_exit                          void _amsg_exit(int param_1)
                 00 00
        004012ad 59              POP        ECX
        004012ae eb 3b           JMP        LAB_004012eb
                             LAB_004012b0                                    XREF[1]:     004012a4(j)  
        004012b0 a1 70 33        MOV        EAX,[DAT_00403370]                               = ??
                 40 00
        004012b5 85 c0           TEST       EAX,EAX
        004012b7 75 2c           JNZ        LAB_004012e5
        004012b9 89 35 70        MOV        dword ptr [DAT_00403370],ESI                     = ??
                 33 40 00
        004012bf 68 c4 20        PUSH       DAT_004020c4
                 40 00
        004012c4 68 b8 20        PUSH       DAT_004020b8
                 40 00
        004012c9 e8 a6 05        CALL       MSVCR90.DLL::_initterm_e                         undefined _initterm_e()
                 00 00
        004012ce 59              POP        ECX
        004012cf 59              POP        ECX
        004012d0 85 c0           TEST       EAX,EAX
        004012d2 74 17           JZ         LAB_004012eb
        004012d4 c7 45 fc        MOV        dword ptr [EBP + local_8],0xfffffffe
                 fe ff ff ff
        004012db b8 ff 00        MOV        EAX,0xff
                 00 00
        004012e0 e9 dd 00        JMP        LAB_004013c2
                 00 00
                             LAB_004012e5                                    XREF[1]:     004012b7(j)  
        004012e5 89 35 34        MOV        dword ptr [DAT_00403034],ESI
                 30 40 00
                             LAB_004012eb                                    XREF[2]:     004012ae(j), 004012d2(j)  
        004012eb a1 70 33        MOV        EAX,[DAT_00403370]                               = ??
                 40 00
        004012f0 3b c6           CMP        EAX,ESI
        004012f2 75 1b           JNZ        LAB_0040130f
        004012f4 68 b4 20        PUSH       DAT_004020b4
                 40 00
        004012f9 68 ac 20        PUSH       DAT_004020ac
                 40 00
        004012fe e8 6b 05        CALL       MSVCR90.DLL::_initterm                           undefined _initterm()
                 00 00
        00401303 59              POP        ECX
        00401304 59              POP        ECX
        00401305 c7 05 70        MOV        dword ptr [DAT_00403370],0x2                     = ??
                 33 40 00 
                 02 00 00 00
                             LAB_0040130f                                    XREF[1]:     004012f2(j)  
        0040130f 39 5d e4        CMP        dword ptr [EBP + local_20],EBX
        00401312 75 08           JNZ        LAB_0040131c
        00401314 53              PUSH       EBX
        00401315 57              PUSH       EDI=>DAT_00403374                                = ??
        00401316 ff 15 2c        CALL       dword ptr [->KERNEL32.DLL::InterlockedExchange]  = 00002576
                 20 40 00
                             LAB_0040131c                                    XREF[1]:     00401312(j)  
        0040131c 39 1d 80        CMP        dword ptr [DAT_00403380],EBX                     = ??
                 33 40 00
        00401322 74 19           JZ         LAB_0040133d
        00401324 68 80 33        PUSH       DAT_00403380                                     = ??
                 40 00
        00401329 e8 82 04        CALL       __IsNonwritableInCurrentImage                    BOOL __IsNonwritableInCurrentIma
                 00 00
        0040132e 59              POP        ECX
        0040132f 85 c0           TEST       EAX,EAX
        00401331 74 0a           JZ         LAB_0040133d
        00401333 53              PUSH       EBX
        00401334 6a 02           PUSH       0x2
        00401336 53              PUSH       EBX
        00401337 ff 15 80        CALL       dword ptr [DAT_00403380]                         = ??
                 33 40 00
                             LAB_0040133d                                    XREF[2]:     00401322(j), 00401331(j)  
        0040133d a1 1c 30        MOV        EAX,[DAT_0040301c]
                 40 00
        00401342 8b 0d 84        MOV        ECX,dword ptr [->MSVCR90.DLL::__initenv]         = 00002432
                 20 40 00
        00401348 89 01           MOV        dword ptr [ECX],EAX
        0040134a ff 35 1c        PUSH       dword ptr [DAT_0040301c]
                 30 40 00
        00401350 ff 35 20        PUSH       dword ptr [DAT_00403020]
                 30 40 00
        00401356 ff 35 18        PUSH       dword ptr [DAT_00403018]
                 30 40 00
        0040135c e8 9f fc        CALL       FUN_00401000                                     undefined FUN_00401000(void)
                 ff ff
        00401361 83 c4 0c        ADD        ESP,0xc
        00401364 a3 30 30        MOV        [DAT_00403030],EAX
                 40 00
        00401369 39 1d 24        CMP        dword ptr [DAT_00403024],EBX
                 30 40 00
        0040136f 75 37           JNZ        LAB_004013a8
        00401371 50              PUSH       EAX
        00401372 ff 15 9c        CALL       dword ptr [->MSVCR90.DLL::exit]                  = 000023e0
                 20 40 00
                             -- Flow Override: CALL_RETURN (COMPUTED_CALL_TERMINATOR)
             assume FS_OFFSET = <UNKNOWN>
                             LAB_00401378                                    XREF[1]:     0040227c(*)  
        00401378 8b 45 ec        MOV        EAX,dword ptr [EBP + -0x14]
        0040137b 8b 08           MOV        ECX,dword ptr [EAX]
        0040137d 8b 09           MOV        ECX,dword ptr [ECX]
        0040137f 89 4d e0        MOV        dword ptr [EBP + -0x20],ECX
        00401382 50              PUSH       EAX
        00401383 51              PUSH       ECX
        00401384 e8 8f 03        CALL       FUN_00401718                                     undefined FUN_00401718(void)
                 00 00
        00401389 59              POP        ECX
        0040138a 59              POP        ECX
        0040138b c3              RET
             assume FS_OFFSET = 0xffdff000
                             DAT_0040138c                                    XREF[1]:     00402280(*)  
        0040138c 8b              ??         8Bh
        0040138d 65              ??         65h    e
        0040138e e8              ??         E8h
        0040138f 8b              ??         8Bh
        00401390 45              ??         45h    E
        00401391 e0              ??         E0h
        00401392 a3              ??         A3h
        00401393 30              ??         30h    0                                         ?  ->  00403030
        00401394 30              ??         30h    0
        00401395 40              ??         40h    @
        00401396 00              ??         00h
        00401397 33              ??         33h    3
        00401398 db              ??         DBh
        00401399 39              ??         39h    9
        0040139a 1d              ??         1Dh
        0040139b 24              ??         24h    $                                         ?  ->  00403024
        0040139c 30              ??         30h    0
        0040139d 40              ??         40h    @
        0040139e 00              ??         00h
        0040139f 75              ??         75h    u
        004013a0 07              ??         07h
        004013a1 50              ??         50h    P
        004013a2 ff              ??         FFh
        004013a3 15              ??         15h
        004013a4 8c              ??         8Ch                                              ?  ->  0040208c
        004013a5 20              ??         20h     
        004013a6 40              ??         40h    @
        004013a7 00              ??         00h
                             LAB_004013a8                                    XREF[1]:     0040136f(j)  
        004013a8 39 1d 34        CMP        dword ptr [DAT_00403034],EBX
                 30 40 00
        004013ae 75 06           JNZ        LAB_004013b6
        004013b0 ff 15 90        CALL       dword ptr [->MSVCR90.DLL::_cexit]                = 00002412
                 20 40 00
                             LAB_004013b6                                    XREF[1]:     004013ae(j)  
        004013b6 c7 45 fc        MOV        dword ptr [EBP + local_8],0xfffffffe
                 fe ff ff ff
        004013bd a1 30 30        MOV        EAX,[DAT_00403030]
                 40 00
                             LAB_004013c2                                    XREF[1]:     004012e0(j)  
        004013c2 e8 fa 04        CALL       __SEH_epilog4                                    undefined __SEH_epilog4(void)
                 00 00
        004013c7 c3              RET
                             LAB_004013c8                                    XREF[1]:     004020bc(*)  
        004013c8 b8 4d 5a        MOV        EAX,0x5a4d
                 00 00
        004013cd 66 39 05        CMP        word ptr [IMAGE_DOS_HEADER_00400000],AX
                 00 00 40 00
        004013d4 74 04           JZ         LAB_004013da
                             LAB_004013d6                                    XREF[4]:     004013eb(j), 004013ff(j), 
                                                                                          00401408(j), 00401418(j)  
        004013d6 33 c0           XOR        EAX,EAX
        004013d8 eb 4d           JMP        LAB_00401427
                             LAB_004013da                                    XREF[1]:     004013d4(j)  
        004013da a1 3c 00        MOV        EAX,[IMAGE_DOS_HEADER_00400000.e_lfanew]
                 40 00
        004013df 8d 80 00        LEA        EAX,[EAX + 0x400000]=>IMAGE_NT_HEADERS32_00400
                 00 40 00
        004013e5 81 38 50        CMP        dword ptr [EAX]=>IMAGE_NT_HEADERS32_004000f0,0
                 45 00 00
        004013eb 75 e9           JNZ        LAB_004013d6
        004013ed 0f b7 48 18     MOVZX      ECX,word ptr [EAX + 0x18]=>IMAGE_NT_HEADERS32_
        004013f1 81 f9 0b        CMP        ECX,0x10b
                 01 00 00
        004013f7 74 1b           JZ         LAB_00401414
        004013f9 81 f9 0b        CMP        ECX,0x20b
                 02 00 00
        004013ff 75 d5           JNZ        LAB_004013d6
        00401401 83 b8 84        CMP        dword ptr [EAX + 0x84]=>IMAGE_NT_HEADERS32_004
                 00 00 00 0e
        00401408 76 cc           JBE        LAB_004013d6
        0040140a 33 c9           XOR        ECX,ECX
        0040140c 39 88 f8        CMP        dword ptr [EAX + 0xf8]=>IMAGE_SECTION_HEADER_0
                 00 00 00
        00401412 eb 0e           JMP        LAB_00401422
                             LAB_00401414                                    XREF[1]:     004013f7(j)  
        00401414 83 78 74 0e     CMP        dword ptr [EAX + 0x74]=>IMAGE_NT_HEADERS32_004
        00401418 76 bc           JBE        LAB_004013d6
        0040141a 33 c9           XOR        ECX,ECX
        0040141c 39 88 e8        CMP        dword ptr [EAX + 0xe8]=>IMAGE_NT_HEADERS32_004
                 00 00 00
                             LAB_00401422                                    XREF[1]:     00401412(j)  
        00401422 0f 95 c1        SETNZ      CL
        00401425 8b c1           MOV        EAX,ECX
                             LAB_00401427                                    XREF[1]:     004013d8(j)  
        00401427 6a 01           PUSH       0x1
        00401429 a3 24 30        MOV        [DAT_00403024],EAX
                 40 00
        0040142e ff 15 4c        CALL       dword ptr [->MSVCR90.DLL::__set_app_type]        = 000024c2
                 20 40 00
        00401434 6a ff           PUSH       -0x1
        00401436 ff 15 48        CALL       dword ptr [->MSVCR90.DLL::_encode_pointer]       = 000024b0
                 20 40 00
        0040143c 59              POP        ECX
        0040143d 59              POP        ECX
        0040143e a3 78 33        MOV        [DAT_00403378],EAX                               = ??
                 40 00
        00401443 a3 7c 33        MOV        [DAT_0040337c],EAX                               = ??
                 40 00
        00401448 ff 15 44        CALL       dword ptr [->MSVCR90.DLL::__p__fmode]            = 000024a2
                 20 40 00
        0040144e 8b 0d 68        MOV        ECX,dword ptr [DAT_00403368]                     = ??
                 33 40 00
        00401454 89 08           MOV        dword ptr [EAX],ECX
        00401456 ff 15 40        CALL       dword ptr [->MSVCR90.DLL::__p__commode]          = 00002492
                 20 40 00
        0040145c 8b 0d 64        MOV        ECX,dword ptr [DAT_00403364]                     = ??
                 33 40 00
        00401462 89 08           MOV        dword ptr [EAX],ECX
        00401464 a1 3c 20        MOV        EAX,[->MSVCR90.DLL::_adjust_fdiv]                = 00002482
                 40 00
        00401469 8b 00           MOV        EAX,dword ptr [EAX]
        0040146b a3 6c 33        MOV        [DAT_0040336c],EAX                               = ??
                 40 00
        00401470 e8 57 02        CALL       FUN_004016cc                                     undefined FUN_004016cc(void)
                 00 00
        00401475 e8 ab 04        CALL       FUN_00401925                                     undefined4 FUN_00401925(void)
                 00 00
        0040147a 83 3d 14        CMP        dword ptr [DAT_00403014],0x0                     = 01h
                 30 40 00 00
        00401481 75 0c           JNZ        LAB_0040148f
        00401483 68 25 19        PUSH       FUN_00401925
                 40 00
        00401488 ff 15 38        CALL       dword ptr [->MSVCR90.DLL::__setusermatherr]      = 0000246e
                 20 40 00
        0040148e 59              POP        ECX
                             LAB_0040148f                                    XREF[1]:     00401481(j)  
        0040148f e8 66 04        CALL       FUN_004018fa                                     undefined FUN_004018fa(void)
                 00 00
        00401494 83 3d 10        CMP        dword ptr [DAT_00403010],-0x1                    = FEh
                 30 40 00 ff
        0040149b 75 09           JNZ        LAB_004014a6
        0040149d 6a ff           PUSH       -0x1
        0040149f ff 15 54        CALL       dword ptr [->MSVCR90.DLL::_configthreadlocale]   = 00002458
                 20 40 00
        004014a5 59              POP        ECX
                             LAB_004014a6                                    XREF[1]:     0040149b(j)  
        004014a6 33 c0           XOR        EAX,EAX
        004014a8 c3              RET
                             **************************************************************
                             *                          FUNCTION                          *
                             **************************************************************
                             undefined __stdcall entry(void)
                               assume FS_OFFSET = 0xffdff000
             undefined         AL:1           <RETURN>
                             entry                                           XREF[2]:     Entry Point(*), 00400118(*)  
        004014a9 e8 7a 04        CALL       ___security_init_cookie                          void ___security_init_cookie(void)
                 00 00
        004014ae e9 9f fd        JMP        FUN_00401252                                     int FUN_00401252(void)
                 ff ff
                             -- Flow Override: CALL_RETURN (CALL_TERMINATOR)
                             **************************************************************
                             * Library Function - Single Match                            *
                             *  ___report_gsfailure                                       *
                             *                                                            *
                             * Libraries: Visual Studio 2005 Release, Visual Studio 20... *
                             **************************************************************
                             void __cdecl ___report_gsfailure(void)
                               assume FS_OFFSET = 0xffdff000
             void              <VOID>         <RETURN>
             undefined4        Stack[0x0]:4   local_res0                              XREF[1]:     0040151a(R)  
             undefined4        Stack[-0x4]:4  local_4                                 XREF[1]:     00401512(*)  
             undefined4        Stack[-0x324   local_324                               XREF[1]:     0040152a(R)  
             undefined4        Stack[-0x328   local_328                               XREF[1]:     00401568(W)  
             undefined4        Stack[-0x32c   local_32c                               XREF[1]:     0040155d(W)  
                             ___report_gsfailure                             XREF[1]:     00401202(c)  
        004014b3 8b ff           MOV        EDI,EDI
        004014b5 55              PUSH       EBP
        004014b6 8b ec           MOV        EBP,ESP
        004014b8 81 ec 28        SUB        ESP,0x328
                 03 00 00
        004014be a3 40 31        MOV        [DAT_00403140],EAX
                 40 00
        004014c3 89 0d 3c        MOV        dword ptr [DAT_0040313c],ECX
                 31 40 00
        004014c9 89 15 38        MOV        dword ptr [DAT_00403138],EDX
                 31 40 00
        004014cf 89 1d 34        MOV        dword ptr [DAT_00403134],EBX
                 31 40 00
        004014d5 89 35 30        MOV        dword ptr [DAT_00403130],ESI
                 31 40 00
        004014db 89 3d 2c        MOV        dword ptr [DAT_0040312c],EDI
                 31 40 00
        004014e1 66 8c 15        MOV        word ptr [DAT_00403158],SS
                 58 31 40 00
        004014e8 66 8c 0d        MOV        word ptr [DAT_0040314c],CS
                 4c 31 40 00
        004014ef 66 8c 1d        MOV        word ptr [DAT_00403128],DS
                 28 31 40 00
        004014f6 66 8c 05        MOV        word ptr [DAT_00403124],ES
                 24 31 40 00
        004014fd 66 8c 25        MOV        word ptr [DAT_00403120],FS
                 20 31 40 00
        00401504 66 8c 2d        MOV        word ptr [DAT_0040311c],GS
                 1c 31 40 00
        0040150b 9c              PUSHFD
        0040150c 8f 05 50        POP        dword ptr [DAT_00403150]
                 31 40 00
        00401512 8b 45 00        MOV        EAX,dword ptr [EBP]=>local_4
        00401515 a3 44 31        MOV        [DAT_00403144],EAX
                 40 00
        0040151a 8b 45 04        MOV        EAX,dword ptr [EBP + local_res0]
        0040151d a3 48 31        MOV        [DAT_00403148],EAX
                 40 00
        00401522 8d 45 08        LEA        EAX=>Stack[0x4],[EBP + 0x8]
        00401525 a3 54 31        MOV        [DAT_00403154],EAX
                 40 00
        0040152a 8b 85 e0        MOV        EAX,dword ptr [EBP + local_324]
                 fc ff ff
        00401530 c7 05 90        MOV        dword ptr [DAT_00403090],0x10001
                 30 40 00 
                 01 00 01 00
        0040153a a1 48 31        MOV        EAX,[DAT_00403148]
                 40 00
        0040153f a3 44 30        MOV        [DAT_00403044],EAX
                 40 00
        00401544 c7 05 38        MOV        dword ptr [DAT_00403038],0xc0000409
                 30 40 00 
                 09 04 00 c0
        0040154e c7 05 3c        MOV        dword ptr [DAT_0040303c],0x1
                 30 40 00 
                 01 00 00 00
        00401558 a1 00 30        MOV        EAX,[DAT_00403000]                               = BB40E64Eh
                 40 00
        0040155d 89 85 d8        MOV        dword ptr [EBP + local_32c],EAX
                 fc ff ff
        00401563 a1 04 30        MOV        EAX,[DAT_00403004]                               = 44BF19B1h
                 40 00
        00401568 89 85 dc        MOV        dword ptr [EBP + local_328],EAX
                 fc ff ff
        0040156e ff 15 00        CALL       dword ptr [->KERNEL32.DLL::IsDebuggerPresent]    = 000023ac
                 20 40 00
        00401574 a3 88 30        MOV        [DAT_00403088],EAX
                 40 00
        00401579 6a 01           PUSH       0x1
        0040157b e8 3e 04        CALL       MSVCR90.DLL::_crt_debugger_hook                  void _crt_debugger_hook(int para
                 00 00
        00401580 59              POP        ECX
        00401581 6a 00           PUSH       0x0
        00401583 ff 15 14        CALL       dword ptr [->KERNEL32.DLL::SetUnhandledExcepti   = 000025f6
                 20 40 00
        00401589 68 ec 20        PUSH       PTR_DAT_004020ec                                 = 00403038
                 40 00
        0040158e ff 15 18        CALL       dword ptr [->KERNEL32.DLL::UnhandledExceptionF   = 000025da
                 20 40 00
        00401594 83 3d 88        CMP        dword ptr [DAT_00403088],0x0
                 30 40 00 00
        0040159b 75 08           JNZ        LAB_004015a5
        0040159d 6a 01           PUSH       0x1
        0040159f e8 1a 04        CALL       MSVCR90.DLL::_crt_debugger_hook                  void _crt_debugger_hook(int para
                 00 00
        004015a4 59              POP        ECX
                             LAB_004015a5                                    XREF[1]:     0040159b(j)  
        004015a5 68 09 04        PUSH       0xc0000409
                 00 c0
        004015aa ff 15 1c        CALL       dword ptr [->KERNEL32.DLL::GetCurrentProcess]    = 000025c6
                 20 40 00
        004015b0 50              PUSH       EAX
        004015b1 ff 15 20        CALL       dword ptr [->KERNEL32.DLL::TerminateProcess]     = 000025b2
                 20 40 00
        004015b7 c9              LEAVE
        004015b8 c3              RET
                             **************************************************************
                             * Library Function - Single Match                            *
                             *  long __stdcall __CxxUnhandledExceptionFilter(struct _E... *
                             *                                                            *
                             * Libraries: Visual Studio 2008 Release, Visual Studio 20... *
                             **************************************************************
                             long __stdcall __CxxUnhandledExceptionFilter(_EXCEPTION_
                               assume FS_OFFSET = 0xffdff000
             long              EAX:4          <RETURN>
             _EXCEPTION_POI    Stack[0x4]:4   param_1                                 XREF[1]:     004015be(R)  
                             ?__CxxUnhandledExceptionFilter@@YGJPAU_EXCEPTI  XREF[1]:     004015fb(*)  
                             __CxxUnhandledExceptionFilter
        004015b9 8b ff           MOV        EDI,EDI
        004015bb 55              PUSH       EBP
        004015bc 8b ec           MOV        EBP,ESP
        004015be 8b 45 08        MOV        EAX,dword ptr [EBP + param_1]
        004015c1 8b 00           MOV        EAX,dword ptr [EAX]
        004015c3 81 38 63        CMP        dword ptr [EAX],0xe06d7363
                 73 6d e0
        004015c9 75 2a           JNZ        LAB_004015f5
        004015cb 83 78 10 03     CMP        dword ptr [EAX + 0x10],0x3
        004015cf 75 24           JNZ        LAB_004015f5
        004015d1 8b 40 14        MOV        EAX,dword ptr [EAX + 0x14]
        004015d4 3d 20 05        CMP        EAX,0x19930520
                 93 19
        004015d9 74 15           JZ         LAB_004015f0
        004015db 3d 21 05        CMP        EAX,0x19930521
                 93 19
        004015e0 74 0e           JZ         LAB_004015f0
        004015e2 3d 22 05        CMP        EAX,0x19930522
                 93 19
        004015e7 74 07           JZ         LAB_004015f0
        004015e9 3d 00 40        CMP        EAX,0x1994000
                 99 01
        004015ee 75 05           JNZ        LAB_004015f5
                             LAB_004015f0                                    XREF[3]:     004015d9(j), 004015e0(j), 
                                                                                          004015e7(j)  
        004015f0 e8 cf 03        CALL       MSVCR90.DLL::terminate                           void terminate(void)
                 00 00
                             LAB_004015f5                                    XREF[3]:     004015c9(j), 004015cf(j), 
                                                                                          004015ee(j)  
        004015f5 33 c0           XOR        EAX,EAX
        004015f7 5d              POP        EBP
        004015f8 c2 04 00        RET        0x4
                             LAB_004015fb                                    XREF[1]:     004020c0(*)  
        004015fb 68 b9 15        PUSH       __CxxUnhandledExceptionFilter
                 40 00
        00401600 ff 15 14        CALL       dword ptr [->KERNEL32.DLL::SetUnhandledExcepti   = 000025f6
                 20 40 00
        00401606 33 c0           XOR        EAX,EAX
        00401608 c3              RET
        00401609 cc              ??         CCh
                             **************************************************************
                             *                       THUNK FUNCTION                       *
                             **************************************************************
                             thunk void __cdecl _amsg_exit(int param_1)
                               Thunked-Function: MSVCR90.DLL::_amsg_exit
                               assume FS_OFFSET = 0xffdff000
             void              <VOID>         <RETURN>
             int               Stack[0x4]:4   param_1
                             MSVCR90.DLL::_amsg_exit                         XREF[1]:     FUN_00401252:004012a8(c)  
        0040160a ff 25 98        JMP        dword ptr [->MSVCR90.DLL::_amsg_exit]
                 20 40 00
                             **************************************************************
                             * Library Function - Single Match                            *
                             *  __onexit                                                  *
                             *                                                            *
                             * Library: Visual Studio 2008 Release                        *
                             **************************************************************
                             _onexit_t __cdecl __onexit(_onexit_t param_1)
                               assume FS_OFFSET = 0xffdff000
             _onexit_t         EAX:4          <RETURN>
             _onexit_t         Stack[0x4]:4   param_1                                 XREF[2]:     00401633(R), 
                                                                                                   0040166b(R)  
             undefined4        Stack[-0x8]:4  local_8                                 XREF[2]:     00401647(RW), 
                                                                                                   00401697(W)  
             undefined4        Stack[-0x20]:4 local_20                                XREF[4]:     0040162b(W), 
                                                                                                   00401653(W), 
                                                                                                   00401667(*), 
                                                                                                   00401680(R)  
             undefined4        Stack[-0x24]:4 local_24                                XREF[3]:     00401660(W), 
                                                                                                   00401663(*), 
                                                                                                   0040168a(R)  
             undefined4        Stack[-0x28]:4 local_28                                XREF[2]:     0040167d(W), 
                                                                                                   004016a3(R)  
                             __onexit                                        XREF[1]:     _atexit:004016bd(c)  
        00401610 6a 14           PUSH       0x14
        00401612 68 88 22        PUSH       DAT_00402288                                     = FEh
                 40 00
        00401617 e8 60 02        CALL       __SEH_prolog4                                    undefined __SEH_prolog4(undefine
                 00 00
        0040161c ff 35 7c        PUSH       dword ptr [DAT_0040337c]                         = ??
                 33 40 00
        00401622 8b 35 6c        MOV        ESI,dword ptr [->MSVCR90.DLL::_decode_pointer]   = 00002528
                 20 40 00
        00401628 ff d6           CALL       ESI=>MSVCR90.DLL::_decode_pointer
        0040162a 59              POP        ECX
        0040162b 89 45 e4        MOV        dword ptr [EBP + local_20],EAX
        0040162e 83 f8 ff        CMP        EAX,-0x1
        00401631 75 0c           JNZ        LAB_0040163f
        00401633 ff 75 08        PUSH       dword ptr [EBP + param_1]
        00401636 ff 15 68        CALL       dword ptr [->MSVCR90.DLL::_onexit]               = 0000251e
                 20 40 00
        0040163c 59              POP        ECX
        0040163d eb 67           JMP        LAB_004016a6
                             LAB_0040163f                                    XREF[1]:     00401631(j)  
        0040163f 6a 08           PUSH       0x8
        00401641 e8 90 03        CALL       MSVCR90.DLL::_lock                               void _lock(int _File)
                 00 00
        00401646 59              POP        ECX
        00401647 83 65 fc 00     AND        dword ptr [EBP + local_8],0x0
        0040164b ff 35 7c        PUSH       dword ptr [DAT_0040337c]                         = ??
                 33 40 00
        00401651 ff d6           CALL       ESI=>MSVCR90.DLL::_decode_pointer
        00401653 89 45 e4        MOV        dword ptr [EBP + local_20],EAX
        00401656 ff 35 78        PUSH       dword ptr [DAT_00403378]                         = ??
                 33 40 00
        0040165c ff d6           CALL       ESI=>MSVCR90.DLL::_decode_pointer
        0040165e 59              POP        ECX
        0040165f 59              POP        ECX
        00401660 89 45 e0        MOV        dword ptr [EBP + local_24],EAX
        00401663 8d 45 e0        LEA        EAX=>local_24,[EBP + -0x20]
        00401666 50              PUSH       EAX
        00401667 8d 45 e4        LEA        EAX=>local_20,[EBP + -0x1c]
        0040166a 50              PUSH       EAX
        0040166b ff 75 08        PUSH       dword ptr [EBP + param_1]
        0040166e 8b 35 48        MOV        ESI,dword ptr [->MSVCR90.DLL::_encode_pointer]   = 000024b0
                 20 40 00
        00401674 ff d6           CALL       ESI=>MSVCR90.DLL::_encode_pointer
        00401676 59              POP        ECX
        00401677 50              PUSH       EAX
        00401678 e8 53 03        CALL       MSVCR90.DLL::__dllonexit                         undefined __dllonexit()
                 00 00
        0040167d 89 45 dc        MOV        dword ptr [EBP + local_28],EAX
        00401680 ff 75 e4        PUSH       dword ptr [EBP + local_20]
        00401683 ff d6           CALL       ESI=>MSVCR90.DLL::_encode_pointer
        00401685 a3 7c 33        MOV        [DAT_0040337c],EAX                               = ??
                 40 00
        0040168a ff 75 e0        PUSH       dword ptr [EBP + local_24]
        0040168d ff d6           CALL       ESI=>MSVCR90.DLL::_encode_pointer
        0040168f 83 c4 14        ADD        ESP,0x14
        00401692 a3 78 33        MOV        [DAT_00403378],EAX                               = ??
                 40 00
        00401697 c7 45 fc        MOV        dword ptr [EBP + local_8],0xfffffffe
                 fe ff ff ff
        0040169e e8 09 00        CALL       FUN_004016ac                                     undefined FUN_004016ac(void)
                 00 00
        004016a3 8b 45 dc        MOV        EAX,dword ptr [EBP + local_28]
                             LAB_004016a6                                    XREF[1]:     0040163d(j)  
        004016a6 e8 16 02        CALL       __SEH_epilog4                                    undefined __SEH_epilog4(void)
                 00 00
        004016ab c3              RET
                             **************************************************************
                             *                          FUNCTION                          *
                             **************************************************************
                             undefined __stdcall FUN_004016ac(void)
                               assume FS_OFFSET = 0xffdff000
             undefined         AL:1           <RETURN>
                             FUN_004016ac                                    XREF[1]:     __onexit:0040169e(c)  
        004016ac 6a 08           PUSH       0x8
        004016ae e8 17 03        CALL       MSVCR90.DLL::_unlock                             void _unlock(int _File)
                 00 00
        004016b3 59              POP        ECX
        004016b4 c3              RET
                             **************************************************************
                             * Library Function - Single Match                            *
                             *  _atexit                                                   *
                             *                                                            *
                             * Library: Visual Studio 2008 Release                        *
                             **************************************************************
                             int __cdecl _atexit(void * param_1)
                               assume FS_OFFSET = 0xffdff000
             int               EAX:4          <RETURN>
             void *            Stack[0x4]:4   param_1                                 XREF[1]:     004016ba(R)  
                             _atexit
        004016b5 8b ff           MOV        EDI,EDI
        004016b7 55              PUSH       EBP
        004016b8 8b ec           MOV        EBP,ESP
        004016ba ff 75 08        PUSH       dword ptr [EBP + param_1]
        004016bd e8 4e ff        CALL       __onexit                                         _onexit_t __onexit(_onexit_t par
                 ff ff
        004016c2 f7 d8           NEG        EAX
        004016c4 1b c0           SBB        EAX,EAX
        004016c6 f7 d8           NEG        EAX
        004016c8 59              POP        ECX
        004016c9 48              DEC        EAX
        004016ca 5d              POP        EBP
        004016cb c3              RET
                             **************************************************************
                             *                          FUNCTION                          *
                             **************************************************************
                             undefined __stdcall FUN_004016cc(void)
                               assume FS_OFFSET = 0xffdff000
             undefined         AL:1           <RETURN>
                             FUN_004016cc                                    XREF[1]:     00401470(c)  
        004016cc 8b ff           MOV        EDI,EDI
        004016ce 56              PUSH       ESI
        004016cf b8 58 22        MOV        EAX=>DAT_00402258,DAT_00402258
                 40 00
        004016d4 be 58 22        MOV        ESI,DAT_00402258
                 40 00
        004016d9 57              PUSH       EDI
        004016da 8b f8           MOV        EDI,EAX
        004016dc 3b c6           CMP        EAX,ESI
        004016de 73 0f           JNC        LAB_004016ef
                             LAB_004016e0                                    XREF[1]:     004016ed(j)  
        004016e0 8b 07           MOV        EAX=>DAT_00402258,dword ptr [EDI]
        004016e2 85 c0           TEST       EAX,EAX
        004016e4 74 02           JZ         LAB_004016e8
        004016e6 ff d0           CALL       EAX
                             LAB_004016e8                                    XREF[1]:     004016e4(j)  
        004016e8 83 c7 04        ADD        EDI,0x4
        004016eb 3b fe           CMP        EDI,ESI
        004016ed 72 f1           JC         LAB_004016e0
                             LAB_004016ef                                    XREF[1]:     004016de(j)  
        004016ef 5f              POP        EDI
        004016f0 5e              POP        ESI
        004016f1 c3              RET
        004016f2 8b              ??         8Bh
        004016f3 ff              ??         FFh
        004016f4 56              ??         56h    V
        004016f5 b8              ??         B8h
        004016f6 60              ??         60h    `                                         ?  ->  00402260
        004016f7 22              ??         22h    "
        004016f8 40              ??         40h    @
        004016f9 00              ??         00h
        004016fa be              ??         BEh
        004016fb 60              ??         60h    `                                         ?  ->  00402260
        004016fc 22              ??         22h    "
        004016fd 40              ??         40h    @
        004016fe 00              ??         00h
        004016ff 57              ??         57h    W
        00401700 8b              ??         8Bh
        00401701 f8              ??         F8h
        00401702 3b              ??         3Bh    ;
        00401703 c6              ??         C6h
        00401704 73              ??         73h    s
        00401705 0f              ??         0Fh
        00401706 8b              ??         8Bh
        00401707 07              ??         07h
        00401708 85              ??         85h
        00401709 c0              ??         C0h
        0040170a 74              ??         74h    t
        0040170b 02              ??         02h
        0040170c ff              ??         FFh
        0040170d d0              ??         D0h
        0040170e 83              ??         83h
        0040170f c7              ??         C7h
        00401710 04              ??         04h
        00401711 3b              ??         3Bh    ;
        00401712 fe              ??         FEh
        00401713 72              ??         72h    r
        00401714 f1              ??         F1h
        00401715 5f              ??         5Fh    _
        00401716 5e              ??         5Eh    ^
        00401717 c3              ??         C3h
                             **************************************************************
                             *                          FUNCTION                          *
                             **************************************************************
                             undefined __stdcall FUN_00401718(void)
             undefined         AL:1           <RETURN>
                             FUN_00401718                                    XREF[1]:     00401384(c)  
        00401718 ff 25 88        JMP        dword ptr [DAT_00402088]
                 20 40 00
             assume FS_OFFSET = 0xffdff000
        0040171e cc              ??         CCh
        0040171f cc              ??         CCh
                             **************************************************************
                             * Library Function - Single Match                            *
                             *  __ValidateImageBase                                       *
                             *                                                            *
                             * Libraries: Visual Studio 2008 Release, Visual Studio 20... *
                             **************************************************************
                             BOOL __cdecl __ValidateImageBase(PBYTE pImageBase)
                               assume FS_OFFSET = 0xffdff000
             BOOL              EAX:4          <RETURN>
             PBYTE             Stack[0x4]:4   pImageBase                              XREF[1]:     00401725(R)  
                             __ValidateImageBase                             XREF[1]:     __IsNonwritableInCurrentImage:00
        00401720 8b ff           MOV        EDI,EDI
        00401722 55              PUSH       EBP
        00401723 8b ec           MOV        EBP,ESP
        00401725 8b 4d 08        MOV        ECX,dword ptr [EBP + pImageBase]
        00401728 b8 4d 5a        MOV        EAX,0x5a4d
                 00 00
        0040172d 66 39 01        CMP        word ptr [ECX],AX
        00401730 74 04           JZ         LAB_00401736
                             LAB_00401732                                    XREF[1]:     00401741(j)  
        00401732 33 c0           XOR        EAX,EAX
        00401734 5d              POP        EBP
        00401735 c3              RET
                             LAB_00401736                                    XREF[1]:     00401730(j)  
        00401736 8b 41 3c        MOV        EAX,dword ptr [ECX + 0x3c]
        00401739 03 c1           ADD        EAX,ECX
        0040173b 81 38 50        CMP        dword ptr [EAX],0x4550
                 45 00 00
        00401741 75 ef           JNZ        LAB_00401732
        00401743 33 d2           XOR        EDX,EDX
        00401745 b9 0b 01        MOV        ECX,0x10b
                 00 00
        0040174a 66 39 48 18     CMP        word ptr [EAX + 0x18],CX
        0040174e 0f 94 c2        SETZ       DL
        00401751 8b c2           MOV        EAX,EDX
        00401753 5d              POP        EBP
        00401754 c3              RET
        00401755 cc              ??         CCh
        00401756 cc              ??         CCh
        00401757 cc              ??         CCh
        00401758 cc              ??         CCh
        00401759 cc              ??         CCh
        0040175a cc              ??         CCh
        0040175b cc              ??         CCh
        0040175c cc              ??         CCh
        0040175d cc              ??         CCh
        0040175e cc              ??         CCh
        0040175f cc              ??         CCh
                             **************************************************************
                             * Library Function - Single Match                            *
                             *  __FindPESection                                           *
                             *                                                            *
                             * Library: Visual Studio 2008 Release                        *
                             **************************************************************
                             PIMAGE_SECTION_HEADER __cdecl __FindPESection(PBYTE pIma
                               assume FS_OFFSET = 0xffdff000
             PIMAGE_SECTION    EAX:4          <RETURN>
             PBYTE             Stack[0x4]:4   pImageBase                              XREF[1]:     00401765(R)  
             DWORD_PTR         Stack[0x8]:4   rva                                     XREF[1]:     00401782(R)  
                             __FindPESection                                 XREF[1]:     __IsNonwritableInCurrentImage:00
        00401760 8b ff           MOV        EDI,EDI
        00401762 55              PUSH       EBP
        00401763 8b ec           MOV        EBP,ESP
        00401765 8b 45 08        MOV        EAX,dword ptr [EBP + pImageBase]
        00401768 8b 48 3c        MOV        ECX,dword ptr [EAX + 0x3c]
        0040176b 03 c8           ADD        ECX,EAX
        0040176d 0f b7 41 14     MOVZX      EAX,word ptr [ECX + 0x14]
        00401771 53              PUSH       EBX
        00401772 56              PUSH       ESI
        00401773 0f b7 71 06     MOVZX      ESI,word ptr [ECX + 0x6]
        00401777 33 d2           XOR        EDX,EDX
        00401779 57              PUSH       EDI
        0040177a 8d 44 08 18     LEA        EAX,[EAX + ECX*0x1 + 0x18]
        0040177e 85 f6           TEST       ESI,ESI
        00401780 76 1b           JBE        LAB_0040179d
        00401782 8b 7d 0c        MOV        EDI,dword ptr [EBP + rva]
                             LAB_00401785                                    XREF[1]:     0040179b(j)  
        00401785 8b 48 0c        MOV        ECX,dword ptr [EAX + 0xc]
        00401788 3b f9           CMP        EDI,ECX
        0040178a 72 09           JC         LAB_00401795
        0040178c 8b 58 08        MOV        EBX,dword ptr [EAX + 0x8]
        0040178f 03 d9           ADD        EBX,ECX
        00401791 3b fb           CMP        EDI,EBX
        00401793 72 0a           JC         LAB_0040179f
                             LAB_00401795                                    XREF[1]:     0040178a(j)  
        00401795 42              INC        EDX
        00401796 83 c0 28        ADD        EAX,0x28
        00401799 3b d6           CMP        EDX,ESI
        0040179b 72 e8           JC         LAB_00401785
                             LAB_0040179d                                    XREF[1]:     00401780(j)  
        0040179d 33 c0           XOR        EAX,EAX
                             LAB_0040179f                                    XREF[1]:     00401793(j)  
        0040179f 5f              POP        EDI
        004017a0 5e              POP        ESI
        004017a1 5b              POP        EBX
        004017a2 5d              POP        EBP
        004017a3 c3              RET
        004017a4 cc              ??         CCh
        004017a5 cc              ??         CCh
        004017a6 cc              ??         CCh
        004017a7 cc              ??         CCh
        004017a8 cc              ??         CCh
        004017a9 cc              ??         CCh
        004017aa cc              ??         CCh
        004017ab cc              ??         CCh
        004017ac cc              ??         CCh
        004017ad cc              ??         CCh
        004017ae cc              ??         CCh
        004017af cc              ??         CCh
                             **************************************************************
                             * Library Function - Single Match                            *
                             *  __IsNonwritableInCurrentImage                             *
                             *                                                            *
                             * Library: Visual Studio 2008 Release                        *
                             **************************************************************
                             BOOL __cdecl __IsNonwritableInCurrentImage(PBYTE pTarget)
                               assume FS_OFFSET = 0xffdff000
             BOOL              EAX:4          <RETURN>
             PBYTE             Stack[0x4]:4   pTarget                                 XREF[1]:     004017fd(R)  
             undefined4        Stack[-0x8]:4  local_8                                 XREF[3]:     004017e5(W), 
                                                                                                   00401822(W), 
                                                                                                   00401852(W)  
             undefined4        Stack[-0xc]:4  local_c                                 XREF[1]:     004017d3(RW)  
             undefined4        Stack[-0x14]:4 local_14                                XREF[3]:     004017d9(*), 
                                                                                                   00401829(R), 
                                                                                                   0040185b(R)  
             undefined4        Stack[-0x1c]:4 local_1c                                XREF[1]:     004017e2(W)  
                             __IsNonwritableInCurrentImage                   XREF[1]:     FUN_00401252:00401329(c)  
        004017b0 8b ff           MOV        EDI,EDI
        004017b2 55              PUSH       EBP
        004017b3 8b ec           MOV        EBP,ESP
        004017b5 6a fe           PUSH       -0x2
        004017b7 68 a8 22        PUSH       DAT_004022a8                                     = FEh
                 40 00
        004017bc 68 d5 18        PUSH       FUN_004018d5
                 40 00
        004017c1 64 a1 00        MOV        EAX,FS:[0x0]=>ExceptionList                      = 00000000
                 00 00 00
        004017c7 50              PUSH       EAX
        004017c8 83 ec 08        SUB        ESP,0x8
        004017cb 53              PUSH       EBX
        004017cc 56              PUSH       ESI
        004017cd 57              PUSH       EDI
        004017ce a1 00 30        MOV        EAX,[DAT_00403000]                               = BB40E64Eh
                 40 00
        004017d3 31 45 f8        XOR        dword ptr [EBP + local_c],EAX
        004017d6 33 c5           XOR        EAX,EBP
        004017d8 50              PUSH       EAX
        004017d9 8d 45 f0        LEA        EAX=>local_14,[EBP + -0x10]
        004017dc 64 a3 00        MOV        FS:[0x0]=>ExceptionList,EAX                      = 00000000
                 00 00 00
        004017e2 89 65 e8        MOV        dword ptr [EBP + local_1c],ESP
        004017e5 c7 45 fc        MOV        dword ptr [EBP + local_8],0x0
                 00 00 00 00
        004017ec 68 00 00        PUSH       IMAGE_DOS_HEADER_00400000
                 40 00
        004017f1 e8 2a ff        CALL       __ValidateImageBase                              BOOL __ValidateImageBase(PBYTE p
                 ff ff
        004017f6 83 c4 04        ADD        ESP,0x4
        004017f9 85 c0           TEST       EAX,EAX
        004017fb 74 55           JZ         LAB_00401852
        004017fd 8b 45 08        MOV        EAX,dword ptr [EBP + pTarget]
        00401800 2d 00 00        SUB        EAX,IMAGE_DOS_HEADER_00400000
                 40 00
        00401805 50              PUSH       EAX
        00401806 68 00 00        PUSH       IMAGE_DOS_HEADER_00400000
                 40 00
        0040180b e8 50 ff        CALL       __FindPESection                                  PIMAGE_SECTION_HEADER __FindPESe
                 ff ff
        00401810 83 c4 08        ADD        ESP,0x8
        00401813 85 c0           TEST       EAX,EAX
        00401815 74 3b           JZ         LAB_00401852
        00401817 8b 40 24        MOV        EAX,dword ptr [EAX + 0x24]
        0040181a c1 e8 1f        SHR        EAX,0x1f
        0040181d f7 d0           NOT        EAX
        0040181f 83 e0 01        AND        EAX,0x1
        00401822 c7 45 fc        MOV        dword ptr [EBP + local_8],0xfffffffe
                 fe ff ff ff
        00401829 8b 4d f0        MOV        ECX,dword ptr [EBP + local_14]
        0040182c 64 89 0d        MOV        dword ptr FS:[0x0]=>ExceptionList,ECX            = 00000000
                 00 00 00 00
        00401833 59              POP        ECX
        00401834 5f              POP        EDI
        00401835 5e              POP        ESI
        00401836 5b              POP        EBX
        00401837 8b e5           MOV        ESP,EBP
        00401839 5d              POP        EBP
        0040183a c3              RET
                             LAB_0040183b                                    XREF[1]:     004022bc(*)  
        0040183b 8b 45 ec        MOV        EAX,dword ptr [EBP + -0x14]
        0040183e 8b 08           MOV        ECX,dword ptr [EAX]
        00401840 8b 01           MOV        EAX,dword ptr [ECX]
        00401842 33 d2           XOR        EDX,EDX
        00401844 3d 05 00        CMP        EAX,0xc0000005
                 00 c0
        00401849 0f 94 c2        SETZ       DL
        0040184c 8b c2           MOV        EAX,EDX
        0040184e c3              RET
                             LAB_0040184f                                    XREF[1]:     004022c0(*)  
        0040184f 8b 65 e8        MOV        ESP,dword ptr [EBP + -0x18]
                             LAB_00401852                                    XREF[2]:     004017fb(j), 00401815(j)  
        00401852 c7 45 fc        MOV        dword ptr [EBP + local_8],0xfffffffe
                 fe ff ff ff
        00401859 33 c0           XOR        EAX,EAX
        0040185b 8b 4d f0        MOV        ECX,dword ptr [EBP + local_14]
        0040185e 64 89 0d        MOV        dword ptr FS:[0x0]=>ExceptionList,ECX            = 00000000
                 00 00 00 00
        00401865 59              POP        ECX
        00401866 5f              POP        EDI
        00401867 5e              POP        ESI
        00401868 5b              POP        EBX
        00401869 8b e5           MOV        ESP,EBP
        0040186b 5d              POP        EBP
        0040186c c3              RET
        0040186d cc              ??         CCh
                             **************************************************************
                             *                       THUNK FUNCTION                       *
                             **************************************************************
                             thunk undefined _initterm()
                               Thunked-Function: MSVCR90.DLL::_initterm
                               assume FS_OFFSET = 0xffdff000
             undefined         AL:1           <RETURN>
                             MSVCR90.DLL::_initterm                          XREF[1]:     FUN_00401252:004012fe(c)  
        0040186e ff 25 80        JMP        dword ptr [->MSVCR90.DLL::_initterm]
                 20 40 00
                             **************************************************************
                             *                       THUNK FUNCTION                       *
                             **************************************************************
                             thunk undefined _initterm_e()
                               Thunked-Function: MSVCR90.DLL::_initterm_e
                               assume FS_OFFSET = 0xffdff000
             undefined         AL:1           <RETURN>
                             MSVCR90.DLL::_initterm_e                        XREF[1]:     FUN_00401252:004012c9(c)  
        00401874 ff 25 7c        JMP        dword ptr [->MSVCR90.DLL::_initterm_e]
                 20 40 00
        0040187a cc              ??         CCh
        0040187b cc              ??         CCh
                             **************************************************************
                             * Library Function - Single Match                            *
                             *  __SEH_prolog4                                             *
                             *                                                            *
                             * Library: Visual Studio                                     *
                             **************************************************************
                             undefined __cdecl __SEH_prolog4(undefined4 param_1, int 
                               Call-Fixup: SEH_prolog4
                               assume FS_OFFSET = 0xffdff000
             undefined         AL:1           <RETURN>
             undefined4        Stack[0x4]:4   param_1                                 XREF[3]:     0040189e(RW), 
                                                                                                   004018aa(R), 
                                                                                                   004018ad(W)  
             int               Stack[0x8]:4   param_2                                 XREF[3]:     00401888(R), 
                                                                                                   0040188c(W), 
                                                                                                   00401890(*)  
             undefined4        Stack[0x0]:4   local_res0                              XREF[2]:     004018a7(R), 
                                                                                                   004018b4(W)  
             undefined1        Stack[-0x8]:1  local_8                                 XREF[1]:     004018b7(*)  
             undefined4        Stack[-0x10]:4 local_10                                XREF[1]:     004018a4(W)  
                             __SEH_prolog4                                   XREF[2]:     FUN_00401252:00401259(c), 
                                                                                          __onexit:00401617(c)  
        0040187c 68 d5 18        PUSH       FUN_004018d5
                 40 00
        00401881 64 ff 35        PUSH       dword ptr FS:[0x0]=>ExceptionList                = 00000000
                 00 00 00 00
        00401888 8b 44 24 10     MOV        EAX,dword ptr [ESP + param_2]
        0040188c 89 6c 24 10     MOV        dword ptr [ESP + param_2],EBP
        00401890 8d 6c 24 10     LEA        EBP=>param_2,[ESP + 0x10]
        00401894 2b e0           SUB        ESP,EAX
        00401896 53              PUSH       EBX
        00401897 56              PUSH       ESI
        00401898 57              PUSH       EDI
        00401899 a1 00 30        MOV        EAX,[DAT_00403000]                               = BB40E64Eh
                 40 00
        0040189e 31 45 fc        XOR        dword ptr [EBP + param_1],EAX
        004018a1 33 c5           XOR        EAX,EBP
        004018a3 50              PUSH       EAX
        004018a4 89 65 e8        MOV        dword ptr [EBP + local_10],ESP
        004018a7 ff 75 f8        PUSH       dword ptr [EBP + local_res0]
        004018aa 8b 45 fc        MOV        EAX,dword ptr [EBP + param_1]
        004018ad c7 45 fc        MOV        dword ptr [EBP + param_1],0xfffffffe
                 fe ff ff ff
        004018b4 89 45 f8        MOV        dword ptr [EBP + local_res0],EAX
        004018b7 8d 45 f0        LEA        EAX=>local_8,[EBP + -0x10]
        004018ba 64 a3 00        MOV        FS:[0x0]=>ExceptionList,EAX                      = 00000000
                 00 00 00
        004018c0 c3              RET
                             **************************************************************
                             * Library Function - Single Match                            *
                             *  __SEH_epilog4                                             *
                             *                                                            *
                             * Library: Visual Studio                                     *
                             **************************************************************
                             undefined __stdcall __SEH_epilog4(void)
                               Call-Fixup: EH_epilog3
                               assume FS_OFFSET = 0xffdff000
             undefined         AL:1           <RETURN>
                             __SEH_epilog4                                   XREF[2]:     FUN_00401252:004013c2(c), 
                                                                                          __onexit:004016a6(c)  
        004018c1 8b 4d f0        MOV        ECX,dword ptr [EBP + -0x10]
        004018c4 64 89 0d        MOV        dword ptr FS:[0x0]=>ExceptionList,ECX            = 00000000
                 00 00 00 00
        004018cb 59              POP        ECX
        004018cc 5f              POP        EDI
        004018cd 5f              POP        EDI
        004018ce 5e              POP        ESI
        004018cf 5b              POP        EBX
        004018d0 8b e5           MOV        ESP,EBP
        004018d2 5d              POP        EBP
        004018d3 51              PUSH       ECX
        004018d4 c3              RET
                             **************************************************************
                             *                          FUNCTION                          *
                             **************************************************************
                             undefined __cdecl FUN_004018d5(undefined4 param_1, undef
                               assume FS_OFFSET = 0xffdff000
             undefined         AL:1           <RETURN>
             undefined4        Stack[0x4]:4   param_1                                 XREF[1]:     004018e3(R)  
             undefined4        Stack[0x8]:4   param_2                                 XREF[1]:     004018e0(R)  
             undefined4        Stack[0xc]:4   param_3                                 XREF[1]:     004018dd(R)  
             undefined4        Stack[0x10]:4  param_4                                 XREF[1]:     004018da(R)  
                             FUN_004018d5                                    XREF[3]:     __IsNonwritableInCurrentImage:00
                                                                                          __SEH_prolog4:0040187c(*), 
                                                                                          00402250(*)  
        004018d5 8b ff           MOV        EDI,EDI
        004018d7 55              PUSH       EBP
        004018d8 8b ec           MOV        EBP,ESP
        004018da ff 75 14        PUSH       dword ptr [EBP + param_4]
        004018dd ff 75 10        PUSH       dword ptr [EBP + param_3]
        004018e0 ff 75 0c        PUSH       dword ptr [EBP + param_2]
        004018e3 ff 75 08        PUSH       dword ptr [EBP + param_1]
        004018e6 68 f8 11        PUSH       LAB_004011f8
                 40 00
        004018eb 68 00 30        PUSH       DAT_00403000                                     = BB40E64Eh
                 40 00
        004018f0 e8 e7 00        CALL       MSVCR90.DLL::_except_handler4_common             undefined _except_handler4_commo
                 00 00
        004018f5 83 c4 18        ADD        ESP,0x18
        004018f8 5d              POP        EBP
        004018f9 c3              RET
                             **************************************************************
                             *                          FUNCTION                          *
                             **************************************************************
                             undefined __stdcall FUN_004018fa(void)
                               assume FS_OFFSET = 0xffdff000
             undefined         AL:1           <RETURN>
                             FUN_004018fa                                    XREF[1]:     0040148f(c)  
        004018fa 8b ff           MOV        EDI,EDI
        004018fc 56              PUSH       ESI
        004018fd 68 00 00        PUSH       0x30000
                 03 00
        00401902 68 00 00        PUSH       0x10000
                 01 00
        00401907 33 f6           XOR        ESI,ESI
        00401909 56              PUSH       ESI
        0040190a e8 d9 00        CALL       MSVCR90.DLL::_controlfp_s                        errno_t _controlfp_s(uint * _Cur
                 00 00
        0040190f 83 c4 0c        ADD        ESP,0xc
        00401912 85 c0           TEST       EAX,EAX
        00401914 74 0d           JZ         LAB_00401923
        00401916 56              PUSH       ESI
        00401917 56              PUSH       ESI
        00401918 56              PUSH       ESI
        00401919 56              PUSH       ESI
        0040191a 56              PUSH       ESI
        0040191b e8 c2 00        CALL       MSVCR90.DLL::_invoke_watson                      void _invoke_watson(wchar_t * pa
                 00 00
                             -- Flow Override: CALL_RETURN (CALL_TERMINATOR)
             assume FS_OFFSET = <UNKNOWN>
        00401920 83              ??         83h
        00401921 c4              ??         C4h
        00401922 14              ??         14h
             assume FS_OFFSET = 0xffdff000
                             LAB_00401923                                    XREF[1]:     00401914(j)  
        00401923 5e              POP        ESI
        00401924 c3              RET
                             **************************************************************
                             *                          FUNCTION                          *
                             **************************************************************
                             undefined4 __stdcall FUN_00401925(void)
                               assume FS_OFFSET = 0xffdff000
             undefined4        EAX:4          <RETURN>
                             FUN_00401925                                    XREF[2]:     00401475(c), 00401483(*)  
        00401925 33 c0           XOR        EAX,EAX
        00401927 c3              RET
                             **************************************************************
                             * Library Function - Single Match                            *
                             *  ___security_init_cookie                                   *
                             *                                                            *
                             * Library: Visual Studio 2008 Release                        *
                             **************************************************************
                             void __cdecl ___security_init_cookie(void)
                               assume FS_OFFSET = 0xffdff000
             void              <VOID>         <RETURN>
             undefined4        Stack[-0x8]:4  local_8                                 XREF[2]:     00401939(RW), 
                                                                                                   00401965(R)  
             undefined4        Stack[-0xc]:4  local_c                                 XREF[3]:     00401935(RW), 
                                                                                                   0040195b(*), 
                                                                                                   00401968(R)  
             undefined4        Stack[-0x10]:4 local_10                                XREF[1]:     0040198d(R)  
             undefined4        Stack[-0x14]:4 local_14                                XREF[2]:     00401983(*), 
                                                                                                   00401990(R)  
                             ___security_init_cookie                         XREF[1]:     entry:004014a9(c)  
        00401928 8b ff           MOV        EDI,EDI
        0040192a 55              PUSH       EBP
        0040192b 8b ec           MOV        EBP,ESP
        0040192d 83 ec 10        SUB        ESP,0x10
        00401930 a1 00 30        MOV        EAX,[DAT_00403000]                               = BB40E64Eh
                 40 00
        00401935 83 65 f8 00     AND        dword ptr [EBP + local_c],0x0
        00401939 83 65 fc 00     AND        dword ptr [EBP + local_8],0x0
        0040193d 53              PUSH       EBX
        0040193e 57              PUSH       EDI
        0040193f bf 4e e6        MOV        EDI,0xbb40e64e
                 40 bb
        00401944 bb 00 00        MOV        EBX,0xffff0000
                 ff ff
        00401949 3b c7           CMP        EAX,EDI
        0040194b 74 0d           JZ         LAB_0040195a
        0040194d 85 c3           TEST       EBX,EAX
        0040194f 74 09           JZ         LAB_0040195a
        00401951 f7 d0           NOT        EAX
        00401953 a3 04 30        MOV        [DAT_00403004],EAX                               = 44BF19B1h
                 40 00
        00401958 eb 60           JMP        LAB_004019ba
                             LAB_0040195a                                    XREF[2]:     0040194b(j), 0040194f(j)  
        0040195a 56              PUSH       ESI
        0040195b 8d 45 f8        LEA        EAX=>local_c,[EBP + -0x8]
        0040195e 50              PUSH       EAX
        0040195f ff 15 30        CALL       dword ptr [->KERNEL32.DLL::GetSystemTimeAsFile   = 0000266a
                 20 40 00
        00401965 8b 75 fc        MOV        ESI,dword ptr [EBP + local_8]
        00401968 33 75 f8        XOR        ESI,dword ptr [EBP + local_c]
        0040196b ff 15 04        CALL       dword ptr [->KERNEL32.DLL::GetCurrentProcessId]  = 00002654
                 20 40 00
        00401971 33 f0           XOR        ESI,EAX
        00401973 ff 15 08        CALL       dword ptr [->KERNEL32.DLL::GetCurrentThreadId]   = 0000263e
                 20 40 00
        00401979 33 f0           XOR        ESI,EAX
        0040197b ff 15 0c        CALL       dword ptr [->KERNEL32.DLL::GetTickCount]         = 0000262e
                 20 40 00
        00401981 33 f0           XOR        ESI,EAX
        00401983 8d 45 f0        LEA        EAX=>local_14,[EBP + -0x10]
        00401986 50              PUSH       EAX
        00401987 ff 15 10        CALL       dword ptr [->KERNEL32.DLL::QueryPerformanceCou   = 00002614
                 20 40 00
        0040198d 8b 45 f4        MOV        EAX,dword ptr [EBP + local_10]
        00401990 33 45 f0        XOR        EAX,dword ptr [EBP + local_14]
        00401993 33 f0           XOR        ESI,EAX
        00401995 3b f7           CMP        ESI,EDI
        00401997 75 07           JNZ        LAB_004019a0
        00401999 be 4f e6        MOV        ESI,0xbb40e64f
                 40 bb
        0040199e eb 0b           JMP        LAB_004019ab
                             LAB_004019a0                                    XREF[1]:     00401997(j)  
        004019a0 85 f3           TEST       EBX,ESI
        004019a2 75 07           JNZ        LAB_004019ab
        004019a4 8b c6           MOV        EAX,ESI
        004019a6 c1 e0 10        SHL        EAX,0x10
        004019a9 0b f0           OR         ESI,EAX
                             LAB_004019ab                                    XREF[2]:     0040199e(j), 004019a2(j)  
        004019ab 89 35 00        MOV        dword ptr [DAT_00403000],ESI                     = BB40E64Eh
                 30 40 00
        004019b1 f7 d6           NOT        ESI
        004019b3 89 35 04        MOV        dword ptr [DAT_00403004],ESI                     = 44BF19B1h
                 30 40 00
        004019b9 5e              POP        ESI
                             LAB_004019ba                                    XREF[1]:     00401958(j)  
        004019ba 5f              POP        EDI
        004019bb 5b              POP        EBX
        004019bc c9              LEAVE
        004019bd c3              RET
                             **************************************************************
                             *                       THUNK FUNCTION                       *
                             **************************************************************
                             thunk void __cdecl _crt_debugger_hook(int param_1)
                               Thunked-Function: MSVCR90.DLL::_crt_debug
                               assume FS_OFFSET = 0xffdff000
             void              <VOID>         <RETURN>
             int               Stack[0x4]:4   param_1
                             MSVCR90.DLL::_crt_debugger_hook                 XREF[2]:     ___report_gsfailure:0040157b(c), 
                                                                                          ___report_gsfailure:0040159f(c)  
        004019be ff 25 50        JMP        dword ptr [->MSVCR90.DLL::_crt_debugger_hook]
                 20 40 00
                             **************************************************************
                             *                       THUNK FUNCTION                       *
                             **************************************************************
                             thunk void __cdecl terminate(void)
                               Thunked-Function: MSVCR90.DLL::terminate
                               assume FS_OFFSET = 0xffdff000
             void              <VOID>         <RETURN>
                             MSVCR90.DLL::terminate                          XREF[1]:     __CxxUnhandledExceptionFilter:00
        004019c4 ff 25 58        JMP        dword ptr [->MSVCR90.DLL::terminate]
                 20 40 00
                             **************************************************************
                             *                       THUNK FUNCTION                       *
                             **************************************************************
                             thunk void __cdecl _unlock(int _File)
                               Thunked-Function: MSVCR90.DLL::_unlock
                               assume FS_OFFSET = 0xffdff000
             void              <VOID>         <RETURN>
             int               Stack[0x4]:4   _File
                             MSVCR90.DLL::_unlock                            XREF[1]:     FUN_004016ac:004016ae(c)  
        004019ca ff 25 5c        JMP        dword ptr [->MSVCR90.DLL::_unlock]
                 20 40 00
                             **************************************************************
                             *                       THUNK FUNCTION                       *
                             **************************************************************
                             thunk undefined __dllonexit()
                               Thunked-Function: MSVCR90.DLL::__dllonexit
                               assume FS_OFFSET = 0xffdff000
             undefined         AL:1           <RETURN>
                             MSVCR90.DLL::__dllonexit                        XREF[1]:     __onexit:00401678(c)  
        004019d0 ff 25 60        JMP        dword ptr [->MSVCR90.DLL::__dllonexit]
                 20 40 00
                             **************************************************************
                             *                       THUNK FUNCTION                       *
                             **************************************************************
                             thunk void __cdecl _lock(int _File)
                               Thunked-Function: MSVCR90.DLL::_lock
                               assume FS_OFFSET = 0xffdff000
             void              <VOID>         <RETURN>
             int               Stack[0x4]:4   _File
                             MSVCR90.DLL::_lock                              XREF[1]:     __onexit:00401641(c)  
        004019d6 ff 25 64        JMP        dword ptr [->MSVCR90.DLL::_lock]
                 20 40 00
                             **************************************************************
                             *                       THUNK FUNCTION                       *
                             **************************************************************
                             thunk undefined _except_handler4_common()
                               Thunked-Function: MSVCR90.DLL::_except_ha
                               assume FS_OFFSET = 0xffdff000
             undefined         AL:1           <RETURN>
                             MSVCR90.DLL::_except_handler4_common            XREF[1]:     FUN_004018d5:004018f0(c)  
        004019dc ff 25 70        JMP        dword ptr [->MSVCR90.DLL::_except_handler4_com
                 20 40 00
                             **************************************************************
                             *                       THUNK FUNCTION                       *
                             **************************************************************
                             thunk noreturn void __cdecl _invoke_watson(wchar_t * par
                               Thunked-Function: MSVCR90.DLL::_invoke_wa
                               assume FS_OFFSET = 0xffdff000
             void              <VOID>         <RETURN>
             wchar_t *         Stack[0x4]:4   param_1
             wchar_t *         Stack[0x8]:4   param_2
             wchar_t *         Stack[0xc]:4   param_3
             uint              Stack[0x10]:4  param_4
             uintptr_t         Stack[0x14]:4  param_5
                             MSVCR90.DLL::_invoke_watson                     XREF[1]:     FUN_004018fa:0040191b(c)  
        004019e2 ff 25 74        JMP        dword ptr [->MSVCR90.DLL::_invoke_watson]
                 20 40 00
                             **************************************************************
                             *                       THUNK FUNCTION                       *
                             **************************************************************
                             thunk errno_t __cdecl _controlfp_s(uint * _CurrentState,
                               Thunked-Function: MSVCR90.DLL::_controlfp
                               assume FS_OFFSET = 0xffdff000
             errno_t           EAX:4          <RETURN>
             uint *            Stack[0x4]:4   _CurrentState
             uint              Stack[0x8]:4   _NewValue
             uint              Stack[0xc]:4   _Mask
                             MSVCR90.DLL::_controlfp_s                       XREF[1]:     FUN_004018fa:0040190a(c)  
        004019e8 ff 25 78        JMP        dword ptr [->MSVCR90.DLL::_controlfp_s]
                 20 40 00
        004019ee 00              ??         00h
        004019ef 00              ??         00h
        004019f0 00              ??         00h
        004019f1 00              ??         00h
        004019f2 00              ??         00h
        004019f3 00              ??         00h
        004019f4 00              ??         00h
        004019f5 00              ??         00h
        004019f6 00              ??         00h
        004019f7 00              ??         00h
        004019f8 00              ??         00h
        004019f9 00              ??         00h
        004019fa 00              ??         00h
        004019fb 00              ??         00h
        004019fc 00              ??         00h
        004019fd 00              ??         00h
        004019fe 00              ??         00h
        004019ff 00              ??         00h
                             //
                             // .rdata 
                             // ram:00402000-ram:004027ff
                             //
                             **************************************************************
                             *                POINTER to EXTERNAL FUNCTION                *
                             **************************************************************
                             BOOL __stdcall IsDebuggerPresent(void)
             BOOL              EAX:4          <RETURN>
             assume FS_OFFSET = <UNKNOWN>
                             721  IsDebuggerPresent  <<not bound>>
                             PTR_IsDebuggerPresent_00402000                  XREF[5]:     00400120(*), 004001c8(*), 
                                                                                          0040021c(*), 
                                                                                          FUN_00401000:00401001(R), 
                                                                                          ___report_gsfailure:0040156e(R)  
        00402000 ac 23 00 00     addr       KERNEL32.DLL::IsDebuggerPresent
                             **************************************************************
                             *                POINTER to EXTERNAL FUNCTION                *
                             **************************************************************
                             DWORD __stdcall GetCurrentProcessId(void)
             DWORD             EAX:4          <RETURN>
                             426  GetCurrentProcessId  <<not bound>>
                             PTR_GetCurrentProcessId_00402004                XREF[1]:     ___security_init_cookie:0040196b
        00402004 54 26 00 00     addr       KERNEL32.DLL::GetCurrentProcessId
                             **************************************************************
                             *                POINTER to EXTERNAL FUNCTION                *
                             **************************************************************
                             DWORD __stdcall GetCurrentThreadId(void)
             DWORD             EAX:4          <RETURN>
                             429  GetCurrentThreadId  <<not bound>>
                             PTR_GetCurrentThreadId_00402008                 XREF[1]:     ___security_init_cookie:00401973
        00402008 3e 26 00 00     addr       KERNEL32.DLL::GetCurrentThreadId
                             **************************************************************
                             *                POINTER to EXTERNAL FUNCTION                *
                             **************************************************************
                             DWORD __stdcall GetTickCount(void)
             DWORD             EAX:4          <RETURN>
                             614  GetTickCount  <<not bound>>
                             PTR_GetTickCount_0040200c                       XREF[1]:     ___security_init_cookie:0040197b
        0040200c 2e 26 00 00     addr       KERNEL32.DLL::GetTickCount
                             **************************************************************
                             *                POINTER to EXTERNAL FUNCTION                *
                             **************************************************************
                             BOOL __stdcall QueryPerformanceCounter(LARGE_INTEGER * l
             BOOL              EAX:4          <RETURN>
             LARGE_INTEGER *   Stack[0x4]:4   lpPerformanceCount
                             852  QueryPerformanceCounter  <<not bound>>
                             PTR_QueryPerformanceCounter_00402010            XREF[1]:     ___security_init_cookie:00401987
        00402010 14 26 00 00     addr       KERNEL32.DLL::QueryPerformanceCounter
                             **************************************************************
                             *                POINTER to EXTERNAL FUNCTION                *
                             **************************************************************
                             LPTOP_LEVEL_EXCEPTION_FILTER __stdcall SetUnhandledExcep
             LPTOP_LEVEL_EX    EAX:4          <RETURN>
             LPTOP_LEVEL_EX    Stack[0x4]:4   lpTopLevelExceptionFilter
                             1045  SetUnhandledExceptionFilter  <<not bound>>
                             PTR_SetUnhandledExceptionFilter_00402014        XREF[2]:     ___report_gsfailure:00401583(R), 
                                                                                          00401600(R)  
        00402014 f6 25 00 00     addr       KERNEL32.DLL::SetUnhandledExceptionFilter
                             **************************************************************
                             *                POINTER to EXTERNAL FUNCTION                *
                             **************************************************************
                             LONG __stdcall UnhandledExceptionFilter(_EXCEPTION_POINT
             LONG              EAX:4          <RETURN>
             _EXCEPTION_POI    Stack[0x4]:4   ExceptionInfo
                             1086  UnhandledExceptionFilter  <<not bound>>
                             PTR_UnhandledExceptionFilter_00402018           XREF[1]:     ___report_gsfailure:0040158e(R)  
        00402018 da 25 00 00     addr       KERNEL32.DLL::UnhandledExceptionFilter
                             **************************************************************
                             *                POINTER to EXTERNAL FUNCTION                *
                             **************************************************************
                             HANDLE __stdcall GetCurrentProcess(void)
             HANDLE            EAX:4          <RETURN>
                             425  GetCurrentProcess  <<not bound>>
                             PTR_GetCurrentProcess_0040201c                  XREF[1]:     ___report_gsfailure:004015aa(R)  
        0040201c c6 25 00 00     addr       KERNEL32.DLL::GetCurrentProcess
                             **************************************************************
                             *                POINTER to EXTERNAL FUNCTION                *
                             **************************************************************
                             BOOL __stdcall TerminateProcess(HANDLE hProcess, UINT uE
             BOOL              EAX:4          <RETURN>
             HANDLE            Stack[0x4]:4   hProcess
             UINT              Stack[0x8]:4   uExitCode
                             1069  TerminateProcess  <<not bound>>
                             PTR_TerminateProcess_00402020                   XREF[1]:     ___report_gsfailure:004015b1(R)  
        00402020 b2 25 00 00     addr       KERNEL32.DLL::TerminateProcess
                             **************************************************************
                             *                POINTER to EXTERNAL FUNCTION                *
                             **************************************************************
                             LONG __stdcall InterlockedCompareExchange(LONG * Destina
             LONG              EAX:4          <RETURN>
             LONG *            Stack[0x4]:4   Destination
             LONG              Stack[0x8]:4   Exchange
             LONG              Stack[0xc]:4   Comperand
                             698  InterlockedCompareExchange  <<not bound>>
                             PTR_InterlockedCompareExchange_00402024         XREF[1]:     FUN_00401252:00401277(R)  
        00402024 94 25 00 00     addr       KERNEL32.DLL::InterlockedCompareExchange
                             **************************************************************
                             *                POINTER to EXTERNAL FUNCTION                *
                             **************************************************************
                             void __stdcall Sleep(DWORD dwMilliseconds)
             void              <VOID>         <RETURN>
             DWORD             Stack[0x4]:4   dwMilliseconds
                             1057  Sleep  <<not bound>>
                             PTR_Sleep_00402028                              XREF[1]:     FUN_00401252:00401292(R)  
        00402028 8c 25 00 00     addr       KERNEL32.DLL::Sleep
                             **************************************************************
                             *                POINTER to EXTERNAL FUNCTION                *
                             **************************************************************
                             LONG __stdcall InterlockedExchange(LONG * Target, LONG V
             LONG              EAX:4          <RETURN>
             LONG *            Stack[0x4]:4   Target
             LONG              Stack[0x8]:4   Value
                             701  InterlockedExchange  <<not bound>>
                             PTR_InterlockedExchange_0040202c                XREF[1]:     FUN_00401252:00401316(R)  
        0040202c 76 25 00 00     addr       KERNEL32.DLL::InterlockedExchange
                             **************************************************************
                             *                POINTER to EXTERNAL FUNCTION                *
                             **************************************************************
                             void __stdcall GetSystemTimeAsFileTime(LPFILETIME lpSyst
             void              <VOID>         <RETURN>
             LPFILETIME        Stack[0x4]:4   lpSystemTimeAsFileTime
                             591  GetSystemTimeAsFileTime  <<not bound>>
                             PTR_GetSystemTimeAsFileTime_00402030            XREF[1]:     ___security_init_cookie:0040195f
        00402030 6a 26 00 00     addr       KERNEL32.DLL::GetSystemTimeAsFileTime
        00402034 00              ??         00h
        00402035 00              ??         00h
        00402036 00              ??         00h
        00402037 00              ??         00h
                             **************************************************************
                             *                POINTER to EXTERNAL FUNCTION                *
                             **************************************************************
                             undefined __setusermatherr()
             undefined         AL:1           <RETURN>
                             227  __setusermatherr  <<not bound>>
                             PTR___setusermatherr_00402038                   XREF[1]:     00401488(R)  
        00402038 6e 24 00 00     addr       MSVCR90.DLL::__setusermatherr
                             267  _adjust_fdiv  <<not bound>>
                             PTR__adjust_fdiv_0040203c                       XREF[1]:     00401464(R)  
        0040203c 82 24 00 00     addr       MSVCR90.DLL::_adjust_fdiv
                             **************************************************************
                             *                POINTER to EXTERNAL FUNCTION                *
                             **************************************************************
                             undefined __p__commode()
             undefined         AL:1           <RETURN>
                             203  __p__commode  <<not bound>>
                             PTR___p__commode_00402040                       XREF[1]:     00401456(R)  
        00402040 92 24 00 00     addr       MSVCR90.DLL::__p__commode
                             **************************************************************
                             *                POINTER to EXTERNAL FUNCTION                *
                             **************************************************************
                             undefined __p__fmode()
             undefined         AL:1           <RETURN>
                             207  __p__fmode  <<not bound>>
                             PTR___p__fmode_00402044                         XREF[1]:     00401448(R)  
        00402044 a2 24 00 00     addr       MSVCR90.DLL::__p__fmode
                             **************************************************************
                             *                POINTER to EXTERNAL FUNCTION                *
                             **************************************************************
                             undefined _encode_pointer()
             undefined         AL:1           <RETURN>
                             362  _encode_pointer  <<not bound>>
                             PTR__encode_pointer_00402048                    XREF[2]:     00401436(R), 
                                                                                          __onexit:0040166e(R)  
        00402048 b0 24 00 00     addr       MSVCR90.DLL::_encode_pointer
                             **************************************************************
                             *                POINTER to EXTERNAL FUNCTION                *
                             **************************************************************
                             void __cdecl __set_app_type(int param_1)
             void              <VOID>         <RETURN>
             int               Stack[0x4]:4   param_1
                             224  __set_app_type  <<not bound>>
                             PTR___set_app_type_0040204c                     XREF[1]:     0040142e(R)  
        0040204c c2 24 00 00     addr       MSVCR90.DLL::__set_app_type
                             **************************************************************
                             *                POINTER to EXTERNAL FUNCTION                *
                             **************************************************************
                             void __cdecl _crt_debugger_hook(int param_1)
             void              <VOID>         <RETURN>
             int               Stack[0x4]:4   param_1
                             331  _crt_debugger_hook  <<not bound>>
                             PTR__crt_debugger_hook_00402050                 XREF[1]:     _crt_debugger_hook:004019be  
        00402050 d4 24 00 00     addr       MSVCR90.DLL::_crt_debugger_hook
                             **************************************************************
                             *                POINTER to EXTERNAL FUNCTION                *
                             **************************************************************
                             int __cdecl _configthreadlocale(int _Flag)
             int               EAX:4          <RETURN>
             int               Stack[0x4]:4   _Flag
                             316  _configthreadlocale  <<not bound>>
                             PTR__configthreadlocale_00402054                XREF[1]:     0040149f(R)  
        00402054 58 24 00 00     addr       MSVCR90.DLL::_configthreadlocale
                             **************************************************************
                             *                POINTER to EXTERNAL FUNCTION                *
                             **************************************************************
                             void __cdecl terminate(void)
             void              <VOID>         <RETURN>
                             67  ?terminate@@YAXXZ  <<not bound>>
                             PTR_terminate_00402058                          XREF[1]:     terminate:004019c4  
        00402058 ea 24 00 00     addr       MSVCR90.DLL::terminate
                             **************************************************************
                             *                POINTER to EXTERNAL FUNCTION                *
                             **************************************************************
                             void __cdecl _unlock(int _File)
             void              <VOID>         <RETURN>
             int               Stack[0x4]:4   _File
                             998  _unlock  <<not bound>>
                             PTR__unlock_0040205c                            XREF[1]:     _unlock:004019ca  
        0040205c fe 24 00 00     addr       MSVCR90.DLL::_unlock
                             **************************************************************
                             *                POINTER to EXTERNAL FUNCTION                *
                             **************************************************************
                             undefined __dllonexit()
             undefined         AL:1           <RETURN>
                             150  __dllonexit  <<not bound>>
                             PTR___dllonexit_00402060                        XREF[1]:     __dllonexit:004019d0  
        00402060 08 25 00 00     addr       MSVCR90.DLL::__dllonexit
                             **************************************************************
                             *                POINTER to EXTERNAL FUNCTION                *
                             **************************************************************
                             void __cdecl _lock(int _File)
             void              <VOID>         <RETURN>
             int               Stack[0x4]:4   _File
                             630  _lock  <<not bound>>
                             PTR__lock_00402064                              XREF[1]:     _lock:004019d6  
        00402064 16 25 00 00     addr       MSVCR90.DLL::_lock
                             **************************************************************
                             *                POINTER to EXTERNAL FUNCTION                *
                             **************************************************************
                             _onexit_t __cdecl _onexit(_onexit_t _Func)
             _onexit_t         EAX:4          <RETURN>
             _onexit_t         Stack[0x4]:4   _Func
                             796  _onexit  <<not bound>>
                             PTR__onexit_00402068                            XREF[1]:     __onexit:00401636(R)  
        00402068 1e 25 00 00     addr       MSVCR90.DLL::_onexit
                             **************************************************************
                             *                POINTER to EXTERNAL FUNCTION                *
                             **************************************************************
                             undefined _decode_pointer()
             undefined         AL:1           <RETURN>
                             352  _decode_pointer  <<not bound>>
                             PTR__decode_pointer_0040206c                    XREF[1]:     __onexit:00401622(R)  
        0040206c 28 25 00 00     addr       MSVCR90.DLL::_decode_pointer
                             **************************************************************
                             *                POINTER to EXTERNAL FUNCTION                *
                             **************************************************************
                             undefined _except_handler4_common()
             undefined         AL:1           <RETURN>
                             371  _except_handler4_common  <<not bound>>
                             PTR__except_handler4_common_00402070            XREF[1]:     _except_handler4_common:004019dc  
        00402070 3a 25 00 00     addr       MSVCR90.DLL::_except_handler4_common
                             **************************************************************
                             *                POINTER to EXTERNAL FUNCTION                *
                             **************************************************************
                             noreturn void __cdecl _invoke_watson(wchar_t * param_1, 
             void              <VOID>         <RETURN>
             wchar_t *         Stack[0x4]:4   param_1
             wchar_t *         Stack[0x8]:4   param_2
             wchar_t *         Stack[0xc]:4   param_3
             uint              Stack[0x10]:4  param_4
             uintptr_t         Stack[0x14]:4  param_5
                             523  _invoke_watson  <<not bound>>
                             PTR__invoke_watson_00402074                     XREF[1]:     _invoke_watson:004019e2  
        00402074 54 25 00 00     addr       MSVCR90.DLL::_invoke_watson
                             **************************************************************
                             *                POINTER to EXTERNAL FUNCTION                *
                             **************************************************************
                             errno_t __cdecl _controlfp_s(uint * _CurrentState, uint 
             errno_t           EAX:4          <RETURN>
             uint *            Stack[0x4]:4   _CurrentState
             uint              Stack[0x8]:4   _NewValue
             uint              Stack[0xc]:4   _Mask
                             319  _controlfp_s  <<not bound>>
                             PTR__controlfp_s_00402078                       XREF[1]:     _controlfp_s:004019e8  
        00402078 66 25 00 00     addr       MSVCR90.DLL::_controlfp_s
                             **************************************************************
                             *                POINTER to EXTERNAL FUNCTION                *
                             **************************************************************
                             undefined _initterm_e()
             undefined         AL:1           <RETURN>
                             517  _initterm_e  <<not bound>>
                             PTR__initterm_e_0040207c                        XREF[1]:     _initterm_e:00401874  
        0040207c 4a 24 00 00     addr       MSVCR90.DLL::_initterm_e
                             **************************************************************
                             *                POINTER to EXTERNAL FUNCTION                *
                             **************************************************************
                             undefined _initterm()
             undefined         AL:1           <RETURN>
                             516  _initterm  <<not bound>>
                             PTR__initterm_00402080                          XREF[1]:     _initterm:0040186e  
        00402080 3e 24 00 00     addr       MSVCR90.DLL::_initterm
                             160  __initenv  <<not bound>>
                             PTR___initenv_00402084                          XREF[1]:     FUN_00401252:00401342(R)  
        00402084 32 24 00 00     addr       MSVCR90.DLL::__initenv
                             DAT_00402088                                    XREF[1]:     FUN_00401718:00401718  
        00402088 24              ??         24h    $
        00402089 24              ??         24h    $
        0040208a 00              ??         00h
        0040208b 00              ??         00h
                             **************************************************************
                             *                POINTER to EXTERNAL FUNCTION                *
                             **************************************************************
                             noreturn void __cdecl _exit(int _Code)
             void              <VOID>         <RETURN>
             int               Stack[0x4]:4   _Code
                             380  _exit  <<not bound>>
        0040208c 1c 24 00 00     addr       MSVCR90.DLL::_exit
                             **************************************************************
                             *                POINTER to EXTERNAL FUNCTION                *
                             **************************************************************
                             void __cdecl _cexit(void)
             void              <VOID>         <RETURN>
                             300  _cexit  <<not bound>>
                             PTR__cexit_00402090                             XREF[1]:     FUN_00401252:004013b0(R)  
        00402090 12 24 00 00     addr       MSVCR90.DLL::_cexit
                             **************************************************************
                             *                POINTER to EXTERNAL FUNCTION                *
                             **************************************************************
                             int __cdecl __getmainargs(int * _Argc, char * * * _Argv,
             int               EAX:4          <RETURN>
             int *             Stack[0x4]:4   _Argc
             char * * *        Stack[0x8]:4   _Argv
             char * * *        Stack[0xc]:4   _Env
             int               Stack[0x10]:4  _DoWildCard
             _startupinfo *    Stack[0x14]:4  _StartInfo
                             159  __getmainargs  <<not bound>>
        00402094 02 24 00 00     addr       MSVCR90.DLL::__getmainargs
                             **************************************************************
                             *                POINTER to EXTERNAL FUNCTION                *
                             **************************************************************
                             void __cdecl _amsg_exit(int param_1)
             void              <VOID>         <RETURN>
             int               Stack[0x4]:4   param_1
                             277  _amsg_exit  <<not bound>>
                             PTR__amsg_exit_00402098                         XREF[1]:     _amsg_exit:0040160a  
        00402098 f4 23 00 00     addr       MSVCR90.DLL::_amsg_exit
                             **************************************************************
                             *                POINTER to EXTERNAL FUNCTION                *
                             **************************************************************
                             noreturn void __cdecl exit(int _Code)
             void              <VOID>         <RETURN>
             int               Stack[0x4]:4   _Code
                             1228  exit  <<not bound>>
                             PTR_exit_0040209c                               XREF[6]:     FUN_00401000:0040101b(R), 
                                                                                          FUN_00401000:004010a4(R), 
                                                                                          FUN_00401000:004010b6(R), 
                                                                                          FUN_00401000:00401105(R), 
                                                                                          FUN_00401000:00401118(R), 
                                                                                          FUN_00401252:00401372(R)  
        0040209c e0 23 00 00     addr       MSVCR90.DLL::exit
                             **************************************************************
                             *                POINTER to EXTERNAL FUNCTION                *
                             **************************************************************
                             int __cdecl printf(char * _Format, ...)
             int               EAX:4          <RETURN>
             char *            Stack[0x4]:4   _Format
                             1326  printf  <<not bound>>
                             PTR_printf_004020a0                             XREF[2]:     FUN_00401000:00401010(R), 
                                                                                          FUN_00401000:00401023(R)  
        004020a0 d6 23 00 00     addr       MSVCR90.DLL::printf
                             **************************************************************
                             *                POINTER to EXTERNAL FUNCTION                *
                             **************************************************************
                             int __cdecl scanf(char * _Format, ...)
             int               EAX:4          <RETURN>
             char *            Stack[0x4]:4   _Format
                             1342  scanf  <<not bound>>
                             PTR_scanf_004020a4                              XREF[1]:     FUN_00401000:0040103a(R)  
        004020a4 ce 23 00 00     addr       MSVCR90.DLL::scanf
        004020a8 00              ??         00h
        004020a9 00              ??         00h
        004020aa 00              ??         00h
        004020ab 00              ??         00h
                             DAT_004020ac                                    XREF[1]:     FUN_00401252:004012f9(*)  
        004020ac 00              ??         00h
        004020ad 00              ??         00h
        004020ae 00              ??         00h
        004020af 00              ??         00h
        004020b0 07              ??         07h                                              ?  ->  00401207
        004020b1 12              ??         12h
        004020b2 40              ??         40h    @
        004020b3 00              ??         00h
                             DAT_004020b4                                    XREF[1]:     FUN_00401252:004012f4(*)  
        004020b4 00              ??         00h
        004020b5 00              ??         00h
        004020b6 00              ??         00h
        004020b7 00              ??         00h
                             DAT_004020b8                                    XREF[1]:     FUN_00401252:004012c4(*)  
        004020b8 00              ??         00h
        004020b9 00              ??         00h
        004020ba 00              ??         00h
        004020bb 00              ??         00h
        004020bc c8 13 40 00     addr       LAB_004013c8
        004020c0 fb 15 40 00     addr       LAB_004015fb
                             DAT_004020c4                                    XREF[1]:     FUN_00401252:004012bf(*)  
        004020c4 00              ??         00h
        004020c5 00              ??         00h
        004020c6 00              ??         00h
        004020c7 00              ??         00h
        004020c8 00              ??         00h
        004020c9 00              ??         00h
        004020ca 00              ??         00h
        004020cb 00              ??         00h
        004020cc 00              ??         00h
        004020cd 00              ??         00h
        004020ce 00              ??         00h
        004020cf 00              ??         00h
                             IMAGE_DEBUG_DIRECTORY_004020d0                  XREF[1]:     00400198(*)  
        004020d0 00 00 00        IMAGE_DE
                 00 2d 2c 
                 b2 5e 00 
                             PTR_DAT_004020ec                                XREF[1]:     ___report_gsfailure:00401589(*)  
        004020ec 38 30 40 00     addr       DAT_00403038
        004020f0 90 30 40 00     addr       DAT_00403090
                             s_Debugger_found._exiting..._004020f4           XREF[1]:     FUN_00401000:0040100b(*)  
        004020f4 44 65 62        ds         "Debugger found. exiting..."
                 75 67 67 
                 65 72 20 
        0040210f 00              ??         00h
                             s_Enter_password:_00402110                      XREF[1]:     FUN_00401000:00401029(*)  
        00402110 45 6e 74        ds         "Enter password: "
                 65 72 20 
                 70 61 73 
        00402121 00              ??         00h
        00402122 00              ??         00h
        00402123 00              ??         00h
                             DAT_00402124                                    XREF[1]:     FUN_00401000:00401035(*)  
        00402124 25              ??         25h    %
        00402125 63              ??         63h    c
        00402126 00              ??         00h
        00402127 00              ??         00h
                             DAT_00402128                                    XREF[2]:     FUN_00401000:00401089(*), 
                                                                                          FUN_00401000:004010e9(*)  
        00402128 25              ??         25h    %
        00402129 64              ??         64h    d
        0040212a 0a              ??         0Ah
        0040212b 00              ??         00h
                             s_Ops!_there_are_more_0040212c                  XREF[1]:     FUN_00401000:00401099(*)  
        0040212c 4f 70 73        ds         "Ops! there are more"
                 21 20 74 
                 68 65 72 
                             s_Ops!_not_this_one_00402140                    XREF[1]:     FUN_00401000:004010aa(*)  
        00402140 4f 70 73        ds         "Ops! not this one"
                 21 20 6e 
                 6f 74 20 
        00402152 00              ??         00h
        00402153 00              ??         00h
                             s_Ops!_you_may_have_found_the_key!_00402154     XREF[1]:     FUN_00401000:004010fa(*)  
        00402154 4f 70 73        ds         "Ops! you may have found the key!"
                 21 20 79 
                 6f 75 20 
        00402175 00              ??         00h
        00402176 00              ??         00h
        00402177 00              ??         00h
                             s_Invalid_password_00402178                     XREF[1]:     FUN_00401000:0040110c(*)  
        00402178 49 6e 76        ds         "Invalid password"
                 61 6c 69 
                 64 20 70 
        00402189 00              ??         00h
        0040218a 00              ??         00h
        0040218b 00              ??         00h
        0040218c 00              ??         00h
        0040218d 00              ??         00h
        0040218e 00              ??         00h
        0040218f 00              ??         00h
                             IMAGE_LOAD_CONFIG_DIRECTORY32_00402190          XREF[1]:     004001b8(*)  
        00402190 48 00 00        IMAGE_LO                                                    = BB40E64Eh
                 00 00 00                                                                    = 004018d5
                 00 00 00 
        0040224f 00              ??         00h
                             **************************************************************
                             * SEHandlerTable (0x1 entries)                               *
                             **************************************************************
                             DAT_00402250                                    XREF[1]:     004021d0(*)  
        00402250 d5 18 00 00     ibo32      FUN_004018d5
        00402254 00              ??         00h
        00402255 00              ??         00h
        00402256 00              ??         00h
        00402257 00              ??         00h
                             DAT_00402258                                    XREF[4]:     FUN_004016cc:004016cf(*), 
                                                                                          FUN_004016cc:004016cf(*), 
                                                                                          FUN_004016cc:004016d4(*), 
                                                                                          FUN_004016cc:004016e0(R)  
        00402258 00 00 00 00     undefined4 00000000h
        0040225c 00              ??         00h
        0040225d 00              ??         00h
        0040225e 00              ??         00h
        0040225f 00              ??         00h
        00402260 00              ??         00h
        00402261 00              ??         00h
        00402262 00              ??         00h
        00402263 00              ??         00h
        00402264 00              ??         00h
        00402265 00              ??         00h
        00402266 00              ??         00h
        00402267 00              ??         00h
                             DAT_00402268                                    XREF[1]:     FUN_00401252:00401254(*)  
        00402268 fe              ??         FEh
        00402269 ff              ??         FFh
        0040226a ff              ??         FFh
        0040226b ff              ??         FFh
        0040226c 00              ??         00h
        0040226d 00              ??         00h
        0040226e 00              ??         00h
        0040226f 00              ??         00h
        00402270 d0              ??         D0h
        00402271 ff              ??         FFh
        00402272 ff              ??         FFh
        00402273 ff              ??         FFh
        00402274 00              ??         00h
        00402275 00              ??         00h
        00402276 00              ??         00h
        00402277 00              ??         00h
        00402278 fe              ??         FEh
        00402279 ff              ??         FFh
        0040227a ff              ??         FFh
        0040227b ff              ??         FFh
        0040227c 78 13 40 00     addr       LAB_00401378
        00402280 8c 13 40 00     addr       DAT_0040138c                                     = 8Bh
        00402284 00              ??         00h
        00402285 00              ??         00h
        00402286 00              ??         00h
        00402287 00              ??         00h
                             DAT_00402288                                    XREF[1]:     __onexit:00401612(*)  
        00402288 fe              ??         FEh
        00402289 ff              ??         FFh
        0040228a ff              ??         FFh
        0040228b ff              ??         FFh
        0040228c 00              ??         00h
        0040228d 00              ??         00h
        0040228e 00              ??         00h
        0040228f 00              ??         00h
        00402290 cc              ??         CCh
        00402291 ff              ??         FFh
        00402292 ff              ??         FFh
        00402293 ff              ??         FFh
        00402294 00              ??         00h
        00402295 00              ??         00h
        00402296 00              ??         00h
        00402297 00              ??         00h
        00402298 fe              ??         FEh
        00402299 ff              ??         FFh
        0040229a ff              ??         FFh
        0040229b ff              ??         FFh
        0040229c 00              ??         00h
        0040229d 00              ??         00h
        0040229e 00              ??         00h
        0040229f 00              ??         00h
        004022a0 ac              ??         ACh                                              ?  ->  004016ac
        004022a1 16              ??         16h
        004022a2 40              ??         40h    @
        004022a3 00              ??         00h
        004022a4 00              ??         00h
        004022a5 00              ??         00h
        004022a6 00              ??         00h
        004022a7 00              ??         00h
                             DAT_004022a8                                    XREF[1]:     __IsNonwritableInCurrentImage:00
        004022a8 fe              ??         FEh
        004022a9 ff              ??         FFh
        004022aa ff              ??         FFh
        004022ab ff              ??         FFh
        004022ac 00              ??         00h
        004022ad 00              ??         00h
        004022ae 00              ??         00h
        004022af 00              ??         00h
        004022b0 d8              ??         D8h
        004022b1 ff              ??         FFh
        004022b2 ff              ??         FFh
        004022b3 ff              ??         FFh
        004022b4 00              ??         00h
        004022b5 00              ??         00h
        004022b6 00              ??         00h
        004022b7 00              ??         00h
        004022b8 fe              ??         FEh
        004022b9 ff              ??         FFh
        004022ba ff              ??         FFh
        004022bb ff              ??         FFh
        004022bc 3b 18 40 00     addr       LAB_0040183b
        004022c0 4f 18 40 00     addr       LAB_0040184f
                             **************************************************************
                             * IMAGE_IMPORT_DESCRIPTOR                                    *
                             **************************************************************
                             DWORD_004022c4                                  XREF[1]:     00400170(*)  
        004022c4 00 23 00 00     ddw        2300h
        004022c8 00 00 00 00     ddw        0h
        004022cc 00 00 00 00     ddw        0h
        004022d0 c0 23 00 00     ddw        23C0h
        004022d4 00 20 00 00     ddw        2000h
                             **************************************************************
                             * IMAGE_IMPORT_DESCRIPTOR                                    *
                             **************************************************************
        004022d8 38 23 00 00     ddw        2338h
        004022dc 00 00 00 00     ddw        0h
        004022e0 00 00 00 00     ddw        0h
        004022e4 e8 23 00 00     ddw        23E8h
        004022e8 38 20 00 00     ddw        2038h
        004022ec 00              ??         00h
        004022ed 00              ??         00h
        004022ee 00              ??         00h
        004022ef 00              ??         00h
        004022f0 00              ??         00h
        004022f1 00              ??         00h
        004022f2 00              ??         00h
        004022f3 00              ??         00h
        004022f4 00              ??         00h
        004022f5 00              ??         00h
        004022f6 00              ??         00h
        004022f7 00              ??         00h
        004022f8 00              ??         00h
        004022f9 00              ??         00h
        004022fa 00              ??         00h
        004022fb 00              ??         00h
        004022fc 00              ??         00h
        004022fd 00              ??         00h
        004022fe 00              ??         00h
        004022ff 00              ??         00h
        00402300 ac 23 00 00     ddw        23ACh                                            IMAGE_THUNK_DATA32
        00402304 54 26 00 00     ddw        2654h                                            IMAGE_THUNK_DATA32
        00402308 3e 26 00 00     ddw        263Eh                                            IMAGE_THUNK_DATA32
        0040230c 2e 26 00 00     ddw        262Eh                                            IMAGE_THUNK_DATA32
        00402310 14 26 00 00     ddw        2614h                                            IMAGE_THUNK_DATA32
        00402314 f6 25 00 00     ddw        25F6h                                            IMAGE_THUNK_DATA32
        00402318 da 25 00 00     ddw        25DAh                                            IMAGE_THUNK_DATA32
        0040231c c6 25 00 00     ddw        25C6h                                            IMAGE_THUNK_DATA32
        00402320 b2 25 00 00     ddw        25B2h                                            IMAGE_THUNK_DATA32
        00402324 94 25 00 00     ddw        2594h                                            IMAGE_THUNK_DATA32
        00402328 8c 25 00 00     ddw        258Ch                                            IMAGE_THUNK_DATA32
        0040232c 76 25 00 00     ddw        2576h                                            IMAGE_THUNK_DATA32
        00402330 6a 26 00 00     ddw        266Ah                                            IMAGE_THUNK_DATA32
        00402334 00              ??         00h
        00402335 00              ??         00h
        00402336 00              ??         00h
        00402337 00              ??         00h
        00402338 6e 24 00 00     ddw        246Eh                                            IMAGE_THUNK_DATA32
        0040233c 82 24 00 00     ddw        2482h                                            IMAGE_THUNK_DATA32
        00402340 92 24 00 00     ddw        2492h                                            IMAGE_THUNK_DATA32
        00402344 a2 24 00 00     ddw        24A2h                                            IMAGE_THUNK_DATA32
        00402348 b0 24 00 00     ddw        24B0h                                            IMAGE_THUNK_DATA32
        0040234c c2 24 00 00     ddw        24C2h                                            IMAGE_THUNK_DATA32
        00402350 d4 24 00 00     ddw        24D4h                                            IMAGE_THUNK_DATA32
        00402354 58 24 00 00     ddw        2458h                                            IMAGE_THUNK_DATA32
        00402358 ea 24 00 00     ddw        24EAh                                            IMAGE_THUNK_DATA32
        0040235c fe 24 00 00     ddw        24FEh                                            IMAGE_THUNK_DATA32
        00402360 08 25 00 00     ddw        2508h                                            IMAGE_THUNK_DATA32
        00402364 16 25 00 00     ddw        2516h                                            IMAGE_THUNK_DATA32
        00402368 1e 25 00 00     ddw        251Eh                                            IMAGE_THUNK_DATA32
        0040236c 28 25 00 00     ddw        2528h                                            IMAGE_THUNK_DATA32
        00402370 3a 25 00 00     ddw        253Ah                                            IMAGE_THUNK_DATA32
        00402374 54 25 00 00     ddw        2554h                                            IMAGE_THUNK_DATA32
        00402378 66 25 00 00     ddw        2566h                                            IMAGE_THUNK_DATA32
        0040237c 4a 24 00 00     ddw        244Ah                                            IMAGE_THUNK_DATA32
        00402380 3e 24 00 00     ddw        243Eh                                            IMAGE_THUNK_DATA32
        00402384 32 24 00 00     ddw        2432h                                            IMAGE_THUNK_DATA32
        00402388 24 24 00 00     ddw        2424h                                            IMAGE_THUNK_DATA32
        0040238c 1c 24 00 00     ddw        241Ch                                            IMAGE_THUNK_DATA32
        00402390 12 24 00 00     ddw        2412h                                            IMAGE_THUNK_DATA32
        00402394 02 24 00 00     ddw        2402h                                            IMAGE_THUNK_DATA32
        00402398 f4 23 00 00     ddw        23F4h                                            IMAGE_THUNK_DATA32
        0040239c e0 23 00 00     ddw        23E0h                                            IMAGE_THUNK_DATA32
        004023a0 d6 23 00 00     ddw        23D6h                                            IMAGE_THUNK_DATA32
        004023a4 ce 23 00 00     ddw        23CEh                                            IMAGE_THUNK_DATA32
        004023a8 00              ??         00h
        004023a9 00              ??         00h
        004023aa 00              ??         00h
        004023ab 00              ??         00h
                             **************************************************************
                             * IMAGE_IMPORT_BY_NAME                                       *
                             **************************************************************
        004023ac d1 02           dw         2D1h
        004023ae 49 73 44        ds         "IsDebuggerPresent"
                 65 62 75 
                 67 67 65 
                             **************************************************************
                             * IMAGE_IMPORT_DESCRIPTOR - DLL NAME                         *
                             **************************************************************
        004023c0 4b 45 52        ds         "KERNEL32.dll"
                 4e 45 4c 
                 33 32 2e 
        004023cd 00              ??         00h
                             **************************************************************
                             * IMAGE_IMPORT_BY_NAME                                       *
                             **************************************************************
        004023ce 3e 05           dw         53Eh
        004023d0 73 63 61        ds         "scanf"
                 6e 66 00
                             **************************************************************
                             * IMAGE_IMPORT_BY_NAME                                       *
                             **************************************************************
        004023d6 2e 05           dw         52Eh
        004023d8 70 72 69        ds         "printf"
                 6e 74 66 00
        004023df 00              ??         00h
                             **************************************************************
                             * IMAGE_IMPORT_BY_NAME                                       *
                             **************************************************************
        004023e0 cc 04           dw         4CCh
        004023e2 65 78 69        ds         "exit"
                 74 00
        004023e7 00              ??         00h
                             **************************************************************
                             * IMAGE_IMPORT_DESCRIPTOR - DLL NAME                         *
                             **************************************************************
        004023e8 4d 53 56        ds         "MSVCR90.dll"
                 43 52 39 
                 30 2e 64 
                             **************************************************************
                             * IMAGE_IMPORT_BY_NAME                                       *
                             **************************************************************
        004023f4 15 01           dw         115h
        004023f6 5f 61 6d        ds         "_amsg_exit"
                 73 67 5f 
                 65 78 69 
        00402401 00              ??         00h
                             **************************************************************
                             * IMAGE_IMPORT_BY_NAME                                       *
                             **************************************************************
        00402402 9f 00           dw         9Fh
        00402404 5f 5f 67        ds         "__getmainargs"
                 65 74 6d 
                 61 69 6e 
                             **************************************************************
                             * IMAGE_IMPORT_BY_NAME                                       *
                             **************************************************************
        00402412 2c 01           dw         12Ch
        00402414 5f 63 65        ds         "_cexit"
                 78 69 74 00
        0040241b 00              ??         00h
                             **************************************************************
                             * IMAGE_IMPORT_BY_NAME                                       *
                             **************************************************************
        0040241c 7c 01           dw         17Ch
        0040241e 5f 65 78        ds         "_exit"
                 69 74 00
                             **************************************************************
                             * IMAGE_IMPORT_BY_NAME                                       *
                             **************************************************************
        00402424 66 00           dw         66h
        00402426 5f 58 63        ds         "_XcptFilter"
                 70 74 46 
                 69 6c 74 
                             **************************************************************
                             * IMAGE_IMPORT_BY_NAME                                       *
                             **************************************************************
        00402432 a0 00           dw         A0h
        00402434 5f 5f 69        ds         "__initenv"
                 6e 69 74 
                 65 6e 76 00
                             **************************************************************
                             * IMAGE_IMPORT_BY_NAME                                       *
                             **************************************************************
        0040243e 04 02           dw         204h
        00402440 5f 69 6e        ds         "_initterm"
                 69 74 74 
                 65 72 6d 00
                             **************************************************************
                             * IMAGE_IMPORT_BY_NAME                                       *
                             **************************************************************
        0040244a 05 02           dw         205h
        0040244c 5f 69 6e        ds         "_initterm_e"
                 69 74 74 
                 65 72 6d 
                             **************************************************************
                             * IMAGE_IMPORT_BY_NAME                                       *
                             **************************************************************
        00402458 3c 01           dw         13Ch
        0040245a 5f 63 6f        ds         "_configthreadlocale"
                 6e 66 69 
                 67 74 68 
                             **************************************************************
                             * IMAGE_IMPORT_BY_NAME                                       *
                             **************************************************************
        0040246e e3 00           dw         E3h
        00402470 5f 5f 73        ds         "__setusermatherr"
                 65 74 75 
                 73 65 72 
        00402481 00              ??         00h
                             **************************************************************
                             * IMAGE_IMPORT_BY_NAME                                       *
                             **************************************************************
        00402482 0b 01           dw         10Bh
        00402484 5f 61 64        ds         "_adjust_fdiv"
                 6a 75 73 
                 74 5f 66 
        00402491 00              ??         00h
                             **************************************************************
                             * IMAGE_IMPORT_BY_NAME                                       *
                             **************************************************************
        00402492 cb 00           dw         CBh
        00402494 5f 5f 70        ds         "__p__commode"
                 5f 5f 63 
                 6f 6d 6d 
        004024a1 00              ??         00h
                             **************************************************************
                             * IMAGE_IMPORT_BY_NAME                                       *
                             **************************************************************
        004024a2 cf 00           dw         CFh
        004024a4 5f 5f 70        ds         "__p__fmode"
                 5f 5f 66 
                 6d 6f 64 
        004024af 00              ??         00h
                             **************************************************************
                             * IMAGE_IMPORT_BY_NAME                                       *
                             **************************************************************
        004024b0 6a 01           dw         16Ah
        004024b2 5f 65 6e        ds         "_encode_pointer"
                 63 6f 64 
                 65 5f 70 
                             **************************************************************
                             * IMAGE_IMPORT_BY_NAME                                       *
                             **************************************************************
        004024c2 e0 00           dw         E0h
        004024c4 5f 5f 73        ds         "__set_app_type"
                 65 74 5f 
                 61 70 70 
        004024d3 00              ??         00h
                             **************************************************************
                             * IMAGE_IMPORT_BY_NAME                                       *
                             **************************************************************
        004024d4 4b 01           dw         14Bh
        004024d6 5f 63 72        ds         "_crt_debugger_hook"
                 74 5f 64 
                 65 62 75 
        004024e9 00              ??         00h
                             **************************************************************
                             * IMAGE_IMPORT_BY_NAME                                       *
                             **************************************************************
        004024ea 43 00           dw         43h
        004024ec 3f 74 65        ds         "?terminate@@YAXXZ"
                 72 6d 69 
                 6e 61 74 
                             **************************************************************
                             * IMAGE_IMPORT_BY_NAME                                       *
                             **************************************************************
        004024fe e6 03           dw         3E6h
        00402500 5f 75 6e        ds         "_unlock"
                 6c 6f 63 
                 6b 00
                             **************************************************************
                             * IMAGE_IMPORT_BY_NAME                                       *
                             **************************************************************
        00402508 96 00           dw         96h
        0040250a 5f 5f 64        ds         "__dllonexit"
                 6c 6c 6f 
                 6e 65 78 
                             **************************************************************
                             * IMAGE_IMPORT_BY_NAME                                       *
                             **************************************************************
        00402516 76 02           dw         276h
        00402518 5f 6c 6f        ds         "_lock"
                 63 6b 00
                             **************************************************************
                             * IMAGE_IMPORT_BY_NAME                                       *
                             **************************************************************
        0040251e 1c 03           dw         31Ch
        00402520 5f 6f 6e        ds         "_onexit"
                 65 78 69 
                 74 00
                             **************************************************************
                             * IMAGE_IMPORT_BY_NAME                                       *
                             **************************************************************
        00402528 60 01           dw         160h
        0040252a 5f 64 65        ds         "_decode_pointer"
                 63 6f 64 
                 65 5f 70 
                             **************************************************************
                             * IMAGE_IMPORT_BY_NAME                                       *
                             **************************************************************
        0040253a 73 01           dw         173h
        0040253c 5f 65 78        ds         "_except_handler4_common"
                 63 65 70 
                 74 5f 68 
                             **************************************************************
                             * IMAGE_IMPORT_BY_NAME                                       *
                             **************************************************************
        00402554 0b 02           dw         20Bh
        00402556 5f 69 6e        ds         "_invoke_watson"
                 76 6f 6b 
                 65 5f 77 
        00402565 00              ??         00h
                             **************************************************************
                             * IMAGE_IMPORT_BY_NAME                                       *
                             **************************************************************
        00402566 3f 01           dw         13Fh
        00402568 5f 63 6f        ds         "_controlfp_s"
                 6e 74 72 
                 6f 6c 66 
        00402575 00              ??         00h
                             **************************************************************
                             * IMAGE_IMPORT_BY_NAME                                       *
                             **************************************************************
        00402576 bd 02           dw         2BDh
        00402578 49 6e 74        ds         "InterlockedExchange"
                 65 72 6c 
                 6f 63 6b 
                             **************************************************************
                             * IMAGE_IMPORT_BY_NAME                                       *
                             **************************************************************
        0040258c 21 04           dw         421h
        0040258e 53 6c 65        ds         "Sleep"
                 65 70 00
                             **************************************************************
                             * IMAGE_IMPORT_BY_NAME                                       *
                             **************************************************************
        00402594 ba 02           dw         2BAh
        00402596 49 6e 74        ds         "InterlockedCompareExchange"
                 65 72 6c 
                 6f 63 6b 
        004025b1 00              ??         00h
                             **************************************************************
                             * IMAGE_IMPORT_BY_NAME                                       *
                             **************************************************************
        004025b2 2d 04           dw         42Dh
        004025b4 54 65 72        ds         "TerminateProcess"
                 6d 69 6e 
                 61 74 65 
        004025c5 00              ??         00h
                             **************************************************************
                             * IMAGE_IMPORT_BY_NAME                                       *
                             **************************************************************
        004025c6 a9 01           dw         1A9h
        004025c8 47 65 74        ds         "GetCurrentProcess"
                 43 75 72 
                 72 65 6e 
                             **************************************************************
                             * IMAGE_IMPORT_BY_NAME                                       *
                             **************************************************************
        004025da 3e 04           dw         43Eh
        004025dc 55 6e 68        ds         "UnhandledExceptionFilter"
                 61 6e 64 
                 6c 65 64 
        004025f5 00              ??         00h
                             **************************************************************
                             * IMAGE_IMPORT_BY_NAME                                       *
                             **************************************************************
        004025f6 15 04           dw         415h
        004025f8 53 65 74        ds         "SetUnhandledExceptionFilter"
                 55 6e 68 
                 61 6e 64 
                             **************************************************************
                             * IMAGE_IMPORT_BY_NAME                                       *
                             **************************************************************
        00402614 54 03           dw         354h
        00402616 51 75 65        ds         "QueryPerformanceCounter"
                 72 79 50 
                 65 72 66 
                             **************************************************************
                             * IMAGE_IMPORT_BY_NAME                                       *
                             **************************************************************
        0040262e 66 02           dw         266h
        00402630 47 65 74        ds         "GetTickCount"
                 54 69 63 
                 6b 43 6f 
        0040263d 00              ??         00h
                             **************************************************************
                             * IMAGE_IMPORT_BY_NAME                                       *
                             **************************************************************
        0040263e ad 01           dw         1ADh
        00402640 47 65 74        ds         "GetCurrentThreadId"
                 43 75 72 
                 72 65 6e 
        00402653 00              ??         00h
                             **************************************************************
                             * IMAGE_IMPORT_BY_NAME                                       *
                             **************************************************************
        00402654 aa 01           dw         1AAh
        00402656 47 65 74        ds         "GetCurrentProcessId"
                 43 75 72 
                 72 65 6e 
                             **************************************************************
                             * IMAGE_IMPORT_BY_NAME                                       *
                             **************************************************************
        0040266a 4f 02           dw         24Fh
        0040266c 47 65 74        ds         "GetSystemTimeAsFileTime"
                 53 79 73 
                 74 65 6d 
        00402684 00              ??         00h
        00402685 00              ??         00h
        00402686 00              ??         00h
        00402687 00              ??         00h
        00402688 00              ??         00h
        00402689 00              ??         00h
        0040268a 00              ??         00h
        0040268b 00              ??         00h
        0040268c 00              ??         00h
        0040268d 00              ??         00h
        0040268e 00              ??         00h
        0040268f 00              ??         00h
        00402690 00              ??         00h
        00402691 00              ??         00h
        00402692 00              ??         00h
        00402693 00              ??         00h
        00402694 00              ??         00h
        00402695 00              ??         00h
        00402696 00              ??         00h
        00402697 00              ??         00h
        00402698 00              ??         00h
        00402699 00              ??         00h
        0040269a 00              ??         00h
        0040269b 00              ??         00h
        0040269c 00              ??         00h
        0040269d 00              ??         00h
        0040269e 00              ??         00h
        0040269f 00              ??         00h
        004026a0 00              ??         00h
        004026a1 00              ??         00h
        004026a2 00              ??         00h
        004026a3 00              ??         00h
        004026a4 00              ??         00h
        004026a5 00              ??         00h
        004026a6 00              ??         00h
        004026a7 00              ??         00h
        004026a8 00              ??         00h
        004026a9 00              ??         00h
        004026aa 00              ??         00h
        004026ab 00              ??         00h
        004026ac 00              ??         00h
        004026ad 00              ??         00h
        004026ae 00              ??         00h
        004026af 00              ??         00h
        004026b0 00              ??         00h
        004026b1 00              ??         00h
        004026b2 00              ??         00h
        004026b3 00              ??         00h
        004026b4 00              ??         00h
        004026b5 00              ??         00h
        004026b6 00              ??         00h
        004026b7 00              ??         00h
        004026b8 00              ??         00h
        004026b9 00              ??         00h
        004026ba 00              ??         00h
        004026bb 00              ??         00h
        004026bc 00              ??         00h
        004026bd 00              ??         00h
        004026be 00              ??         00h
        004026bf 00              ??         00h
        004026c0 00              ??         00h
        004026c1 00              ??         00h
        004026c2 00              ??         00h
        004026c3 00              ??         00h
        004026c4 00              ??         00h
        004026c5 00              ??         00h
        004026c6 00              ??         00h
        004026c7 00              ??         00h
        004026c8 00              ??         00h
        004026c9 00              ??         00h
        004026ca 00              ??         00h
        004026cb 00              ??         00h
        004026cc 00              ??         00h
        004026cd 00              ??         00h
        004026ce 00              ??         00h
        004026cf 00              ??         00h
        004026d0 00              ??         00h
        004026d1 00              ??         00h
        004026d2 00              ??         00h
        004026d3 00              ??         00h
        004026d4 00              ??         00h
        004026d5 00              ??         00h
        004026d6 00              ??         00h
        004026d7 00              ??         00h
        004026d8 00              ??         00h
        004026d9 00              ??         00h
        004026da 00              ??         00h
        004026db 00              ??         00h
        004026dc 00              ??         00h
        004026dd 00              ??         00h
        004026de 00              ??         00h
        004026df 00              ??         00h
        004026e0 00              ??         00h
        004026e1 00              ??         00h
        004026e2 00              ??         00h
        004026e3 00              ??         00h
        004026e4 00              ??         00h
        004026e5 00              ??         00h
        004026e6 00              ??         00h
        004026e7 00              ??         00h
        004026e8 00              ??         00h
        004026e9 00              ??         00h
        004026ea 00              ??         00h
        004026eb 00              ??         00h
        004026ec 00              ??         00h
        004026ed 00              ??         00h
        004026ee 00              ??         00h
        004026ef 00              ??         00h
        004026f0 00              ??         00h
        004026f1 00              ??         00h
        004026f2 00              ??         00h
        004026f3 00              ??         00h
        004026f4 00              ??         00h
        004026f5 00              ??         00h
        004026f6 00              ??         00h
        004026f7 00              ??         00h
        004026f8 00              ??         00h
        004026f9 00              ??         00h
        004026fa 00              ??         00h
        004026fb 00              ??         00h
        004026fc 00              ??         00h
        004026fd 00              ??         00h
        004026fe 00              ??         00h
        004026ff 00              ??         00h
        00402700 00              ??         00h
        00402701 00              ??         00h
        00402702 00              ??         00h
        00402703 00              ??         00h
        00402704 00              ??         00h
        00402705 00              ??         00h
        00402706 00              ??         00h
        00402707 00              ??         00h
        00402708 00              ??         00h
        00402709 00              ??         00h
        0040270a 00              ??         00h
        0040270b 00              ??         00h
        0040270c 00              ??         00h
        0040270d 00              ??         00h
        0040270e 00              ??         00h
        0040270f 00              ??         00h
        00402710 00              ??         00h
        00402711 00              ??         00h
        00402712 00              ??         00h
        00402713 00              ??         00h
        00402714 00              ??         00h
        00402715 00              ??         00h
        00402716 00              ??         00h
        00402717 00              ??         00h
        00402718 00              ??         00h
        00402719 00              ??         00h
        0040271a 00              ??         00h
        0040271b 00              ??         00h
        0040271c 00              ??         00h
        0040271d 00              ??         00h
        0040271e 00              ??         00h
        0040271f 00              ??         00h
        00402720 00              ??         00h
        00402721 00              ??         00h
        00402722 00              ??         00h
        00402723 00              ??         00h
        00402724 00              ??         00h
        00402725 00              ??         00h
        00402726 00              ??         00h
        00402727 00              ??         00h
        00402728 00              ??         00h
        00402729 00              ??         00h
        0040272a 00              ??         00h
        0040272b 00              ??         00h
        0040272c 00              ??         00h
        0040272d 00              ??         00h
        0040272e 00              ??         00h
        0040272f 00              ??         00h
        00402730 00              ??         00h
        00402731 00              ??         00h
        00402732 00              ??         00h
        00402733 00              ??         00h
        00402734 00              ??         00h
        00402735 00              ??         00h
        00402736 00              ??         00h
        00402737 00              ??         00h
        00402738 00              ??         00h
        00402739 00              ??         00h
        0040273a 00              ??         00h
        0040273b 00              ??         00h
        0040273c 00              ??         00h
        0040273d 00              ??         00h
        0040273e 00              ??         00h
        0040273f 00              ??         00h
        00402740 00              ??         00h
        00402741 00              ??         00h
        00402742 00              ??         00h
        00402743 00              ??         00h
        00402744 00              ??         00h
        00402745 00              ??         00h
        00402746 00              ??         00h
        00402747 00              ??         00h
        00402748 00              ??         00h
        00402749 00              ??         00h
        0040274a 00              ??         00h
        0040274b 00              ??         00h
        0040274c 00              ??         00h
        0040274d 00              ??         00h
        0040274e 00              ??         00h
        0040274f 00              ??         00h
        00402750 00              ??         00h
        00402751 00              ??         00h
        00402752 00              ??         00h
        00402753 00              ??         00h
        00402754 00              ??         00h
        00402755 00              ??         00h
        00402756 00              ??         00h
        00402757 00              ??         00h
        00402758 00              ??         00h
        00402759 00              ??         00h
        0040275a 00              ??         00h
        0040275b 00              ??         00h
        0040275c 00              ??         00h
        0040275d 00              ??         00h
        0040275e 00              ??         00h
        0040275f 00              ??         00h
        00402760 00              ??         00h
        00402761 00              ??         00h
        00402762 00              ??         00h
        00402763 00              ??         00h
        00402764 00              ??         00h
        00402765 00              ??         00h
        00402766 00              ??         00h
        00402767 00              ??         00h
        00402768 00              ??         00h
        00402769 00              ??         00h
        0040276a 00              ??         00h
        0040276b 00              ??         00h
        0040276c 00              ??         00h
        0040276d 00              ??         00h
        0040276e 00              ??         00h
        0040276f 00              ??         00h
        00402770 00              ??         00h
        00402771 00              ??         00h
        00402772 00              ??         00h
        00402773 00              ??         00h
        00402774 00              ??         00h
        00402775 00              ??         00h
        00402776 00              ??         00h
        00402777 00              ??         00h
        00402778 00              ??         00h
        00402779 00              ??         00h
        0040277a 00              ??         00h
        0040277b 00              ??         00h
        0040277c 00              ??         00h
        0040277d 00              ??         00h
        0040277e 00              ??         00h
        0040277f 00              ??         00h
        00402780 00              ??         00h
        00402781 00              ??         00h
        00402782 00              ??         00h
        00402783 00              ??         00h
        00402784 00              ??         00h
        00402785 00              ??         00h
        00402786 00              ??         00h
        00402787 00              ??         00h
        00402788 00              ??         00h
        00402789 00              ??         00h
        0040278a 00              ??         00h
        0040278b 00              ??         00h
        0040278c 00              ??         00h
        0040278d 00              ??         00h
        0040278e 00              ??         00h
        0040278f 00              ??         00h
        00402790 00              ??         00h
        00402791 00              ??         00h
        00402792 00              ??         00h
        00402793 00              ??         00h
        00402794 00              ??         00h
        00402795 00              ??         00h
        00402796 00              ??         00h
        00402797 00              ??         00h
        00402798 00              ??         00h
        00402799 00              ??         00h
        0040279a 00              ??         00h
        0040279b 00              ??         00h
        0040279c 00              ??         00h
        0040279d 00              ??         00h
        0040279e 00              ??         00h
        0040279f 00              ??         00h
        004027a0 00              ??         00h
        004027a1 00              ??         00h
        004027a2 00              ??         00h
        004027a3 00              ??         00h
        004027a4 00              ??         00h
        004027a5 00              ??         00h
        004027a6 00              ??         00h
        004027a7 00              ??         00h
        004027a8 00              ??         00h
        004027a9 00              ??         00h
        004027aa 00              ??         00h
        004027ab 00              ??         00h
        004027ac 00              ??         00h
        004027ad 00              ??         00h
        004027ae 00              ??         00h
        004027af 00              ??         00h
        004027b0 00              ??         00h
        004027b1 00              ??         00h
        004027b2 00              ??         00h
        004027b3 00              ??         00h
        004027b4 00              ??         00h
        004027b5 00              ??         00h
        004027b6 00              ??         00h
        004027b7 00              ??         00h
        004027b8 00              ??         00h
        004027b9 00              ??         00h
        004027ba 00              ??         00h
        004027bb 00              ??         00h
        004027bc 00              ??         00h
        004027bd 00              ??         00h
        004027be 00              ??         00h
        004027bf 00              ??         00h
        004027c0 00              ??         00h
        004027c1 00              ??         00h
        004027c2 00              ??         00h
        004027c3 00              ??         00h
        004027c4 00              ??         00h
        004027c5 00              ??         00h
        004027c6 00              ??         00h
        004027c7 00              ??         00h
        004027c8 00              ??         00h
        004027c9 00              ??         00h
        004027ca 00              ??         00h
        004027cb 00              ??         00h
        004027cc 00              ??         00h
        004027cd 00              ??         00h
        004027ce 00              ??         00h
        004027cf 00              ??         00h
        004027d0 00              ??         00h
        004027d1 00              ??         00h
        004027d2 00              ??         00h
        004027d3 00              ??         00h
        004027d4 00              ??         00h
        004027d5 00              ??         00h
        004027d6 00              ??         00h
        004027d7 00              ??         00h
        004027d8 00              ??         00h
        004027d9 00              ??         00h
        004027da 00              ??         00h
        004027db 00              ??         00h
        004027dc 00              ??         00h
        004027dd 00              ??         00h
        004027de 00              ??         00h
        004027df 00              ??         00h
        004027e0 00              ??         00h
        004027e1 00              ??         00h
        004027e2 00              ??         00h
        004027e3 00              ??         00h
        004027e4 00              ??         00h
        004027e5 00              ??         00h
        004027e6 00              ??         00h
        004027e7 00              ??         00h
        004027e8 00              ??         00h
        004027e9 00              ??         00h
        004027ea 00              ??         00h
        004027eb 00              ??         00h
        004027ec 00              ??         00h
        004027ed 00              ??         00h
        004027ee 00              ??         00h
        004027ef 00              ??         00h
        004027f0 00              ??         00h
        004027f1 00              ??         00h
        004027f2 00              ??         00h
        004027f3 00              ??         00h
        004027f4 00              ??         00h
        004027f5 00              ??         00h
        004027f6 00              ??         00h
        004027f7 00              ??         00h
        004027f8 00              ??         00h
        004027f9 00              ??         00h
        004027fa 00              ??         00h
        004027fb 00              ??         00h
        004027fc 00              ??         00h
        004027fd 00              ??         00h
        004027fe 00              ??         00h
        004027ff 00              ??         00h
